

Microchip Technology PIC18 LITE Macro Assembler V1.33 build 59893 
                                                                                               Fri Mar 08 10:06:23 2019

Microchip Technology Omniscient Code Generator (Lite mode) build 59893
     1                           	processor	18F4525
     2                           	fnconf	rparam,??,?,0
     3                           	opt	pw 120
     4                           	opt	lm
     5                           	psect	smallconst,global,reloc=2,class=SMALLCONST,delta=1
     6                           	psect	cinit,global,reloc=2,class=CODE,delta=1
     7                           	psect	bssCOMRAM,global,class=COMRAM,space=1,delta=1
     8                           	psect	cstackCOMRAM,global,class=COMRAM,space=1,delta=1
     9                           	psect	text0,global,reloc=2,class=CODE,delta=1
    10                           	psect	text1,global,reloc=2,class=CODE,delta=1
    11                           	psect	text2,global,reloc=2,class=CODE,delta=1
    12                           	psect	text3,global,reloc=2,class=CODE,delta=1
    13                           	psect	text4,global,reloc=2,class=CODE,delta=1
    14                           	psect	text5,global,reloc=2,class=CODE,delta=1
    15                           	psect	text6,global,reloc=2,class=CODE,delta=1
    16                           	psect	text7,global,reloc=2,class=CODE,delta=1
    17                           	psect	text8,global,reloc=2,class=CODE,delta=1
    18                           	psect	text9,global,reloc=2,class=CODE,delta=1
    19                           	psect	text10,global,reloc=2,class=CODE,delta=1
    20                           	psect	text11,global,reloc=2,class=CODE,delta=1
    21                           	psect	text12,global,reloc=2,class=CODE,delta=1
    22                           	psect	text13,global,reloc=2,class=CODE,delta=1
    23                           	psect	text14,global,reloc=2,class=CODE,delta=1
    24                           	psect	text15,global,reloc=2,class=CODE,delta=1
    25                           	psect	text16,global,reloc=2,class=CODE,delta=1
    26                           	psect	text17,global,reloc=2,class=CODE,delta=1
    27                           	psect	text18,global,reloc=2,class=CODE,delta=1
    28                           	psect	text19,global,reloc=2,class=CODE,delta=1
    29                           	psect	text20,global,reloc=2,class=CODE,delta=1
    30                           	psect	text21,global,reloc=2,class=CODE,delta=1
    31                           	psect	text22,global,reloc=2,class=CODE,delta=1
    32                           	psect	text23,global,reloc=2,class=CODE,delta=1
    33                           	psect	text24,global,reloc=2,class=CODE,delta=1
    34                           	psect	text25,global,reloc=2,class=CODE,delta=1
    35                           	psect	text26,global,reloc=2,class=CODE,delta=1
    36                           	psect	text27,global,reloc=2,class=CODE,delta=1
    37                           	psect	text28,global,reloc=2,class=CODE,delta=1
    38                           	psect	text29,global,reloc=2,class=CODE,delta=1
    39                           	psect	text30,global,reloc=2,class=CODE,delta=1
    40                           	psect	text31,global,reloc=2,class=CODE,delta=1
    41                           	psect	text32,global,reloc=2,class=CODE,delta=1
    42                           	psect	text33,global,reloc=2,class=CODE,delta=1
    43                           	psect	text34,global,reloc=2,class=CODE,delta=1
    44                           	psect	text35,global,reloc=2,class=CODE,delta=1
    45                           	psect	text36,global,reloc=2,class=CODE,delta=1
    46                           	psect	text37,global,reloc=2,class=CODE,delta=1
    47                           	psect	text38,global,reloc=2,class=CODE,delta=1
    48                           	psect	text39,global,reloc=2,class=CODE,delta=1
    49                           	psect	text40,global,reloc=2,class=CODE,delta=1
    50                           	psect	text41,global,reloc=2,class=CODE,delta=1
    51                           	psect	text42,global,reloc=2,class=CODE,delta=1
    52                           	psect	text43,global,reloc=2,class=CODE,delta=1
    53                           	psect	text44,global,reloc=2,class=CODE,delta=1
    54                           	psect	text45,global,reloc=2,class=CODE,delta=1
    55                           	psect	text46,global,reloc=2,class=CODE,delta=1
    56                           	psect	text47,global,reloc=2,class=CODE,delta=1
    57                           	psect	intcode,global,reloc=2,class=CODE,delta=1
    58                           	psect	intcode_body,global,reloc=2,class=CODE,delta=1
    59                           	psect	intsave_regs,global,class=BIGRAM,space=1,delta=1
    60                           	psect	rparam,global,class=COMRAM,space=1,delta=1
    61  0000                     
    62                           	psect	smallconst
    63  001000                     __psmallconst:
    64                           	opt stack 0
    65  001000  00                 	db	0
    66  001001                     set_motor_speed@motor_speeds:
    67                           	opt stack 0
    68  001001  FCE0               	dw	64736
    69  001003  FD2B               	dw	64811
    70  001005  FD76               	dw	64886
    71  001007  0000               	dw	0
    72  001009  028A               	dw	650
    73  00100B  02D5               	dw	725
    74  00100D  0320               	dw	800
    75  00100F                     __end_ofset_motor_speed@motor_speeds:
    76                           	opt stack 0
    77  0000                     _ADCON0	set	4034
    78  0000                     _ADCON0bits	set	4034
    79  0000                     _ADCON1	set	4033
    80  0000                     _ADCON2	set	4032
    81  0000                     _ADRESH	set	4036
    82  0000                     _ADRESL	set	4035
    83  0000                     _CCP1CON	set	4029
    84  0000                     _CCP2CON	set	4026
    85  0000                     _CCPR1L	set	4030
    86  0000                     _CCPR2L	set	4027
    87  0000                     _HLVDCONbits	set	4050
    88  0000                     _INTCONbits	set	4082
    89  0000                     _IPR2bits	set	4002
    90  0000                     _OSCCONbits	set	4051
    91  0000                     _OSCTUNEbits	set	3995
    92  0000                     _PIE1bits	set	3997
    93  0000                     _PIE2bits	set	4000
    94  0000                     _PIR1bits	set	3998
    95  0000                     _PIR2bits	set	4001
    96  0000                     _PORTCbits	set	3970
    97  0000                     _PORTD	set	3971
    98  0000                     _PORTDbits	set	3971
    99  0000                     _PORTEbits	set	3972
   100  0000                     _PR2	set	4043
   101  0000                     _RCONbits	set	4048
   102  0000                     _RCSTA	set	4011
   103  0000                     _RCSTAbits	set	4011
   104  0000                     _SPBRG	set	4015
   105  0000                     _SPBRGH	set	4016
   106  0000                     _STKPTRbits	set	4092
   107  0000                     _T2CON	set	4042
   108  0000                     _T2CONbits	set	4042
   109  0000                     _TMR2	set	4044
   110  0000                     _TRISA	set	3986
   111  0000                     _TRISB	set	3987
   112  0000                     _TRISBbits	set	3987
   113  0000                     _TRISC	set	3988
   114  0000                     _TRISCbits	set	3988
   115  0000                     _TRISD	set	3989
   116  0000                     _TRISE	set	3990
   117  0000                     _TXSTA	set	4012
   118  0000                     _TXSTAbits	set	4012
   119  00100F                     __stringdata:
   120                           	opt stack 0
   121  00100F                     STR_1:
   122  00100F  0A                 	db	10
   123  001010  0D                 	db	13
   124  001011  4B                 	db	75	;'K'
   125  001012  77                 	db	119	;'w'
   126  001013  61                 	db	97	;'a'
   127  001014  6E                 	db	110	;'n'
   128  001015  74                 	db	116	;'t'
   129  001016  6C                 	db	108	;'l'
   130  001017  65                 	db	101	;'e'
   131  001018  6E                 	db	110	;'n'
   132  001019  20                 	db	32
   133  00101A  41                 	db	65	;'A'
   134  00101B  50                 	db	80	;'P'
   135  00101C  53                 	db	83	;'S'
   136  00101D  43                 	db	67	;'C'
   137  00101E  31                 	db	49	;'1'
   138  00101F  32                 	db	50	;'2'
   139  001020  39                 	db	57	;'9'
   140  001021  39                 	db	57	;'9'
   141  001022  20                 	db	32
   142  001023  73                 	db	115	;'s'
   143  001024  69                 	db	105	;'i'
   144  001025  6D                 	db	109	;'m'
   145  001026  70                 	db	112	;'p'
   146  001027  6C                 	db	108	;'l'
   147  001028  65                 	db	101	;'e'
   148  001029  20                 	db	32
   149  00102A  63                 	db	99	;'c'
   150  00102B  75                 	db	117	;'u'
   151  00102C  72                 	db	114	;'r'
   152  00102D  76                 	db	118	;'v'
   153  00102E  65                 	db	101	;'e'
   154  00102F  20                 	db	32
   155  001030  66                 	db	102	;'f'
   156  001031  6F                 	db	111	;'o'
   157  001032  6C                 	db	108	;'l'
   158  001033  6C                 	db	108	;'l'
   159  001034  6F                 	db	111	;'o'
   160  001035  77                 	db	119	;'w'
   161  001036  65                 	db	101	;'e'
   162  001037  72                 	db	114	;'r'
   163  001038  20                 	db	32
   164  001039  2D                 	db	45
   165  00103A  2D                 	db	45
   166  00103B  20                 	db	32
   167  00103C  77                 	db	119	;'w'
   168  00103D  69                 	db	105	;'i'
   169  00103E  74                 	db	116	;'t'
   170  00103F  68                 	db	104	;'h'
   171  001040  20                 	db	32
   172  001041  65                 	db	101	;'e'
   173  001042  72                 	db	114	;'r'
   174  001043  72                 	db	114	;'r'
   175  001044  6F                 	db	111	;'o'
   176  001045  72                 	db	114	;'r'
   177  001046  20                 	db	32
   178  001047  63                 	db	99	;'c'
   179  001048  6F                 	db	111	;'o'
   180  001049  64                 	db	100	;'d'
   181  00104A  65                 	db	101	;'e'
   182  00104B  73                 	db	115	;'s'
   183  00104C  0A                 	db	10
   184  00104D  0D                 	db	13
   185  00104E  00                 	db	0
   186  00104F                     STR_6:
   187  00104F  20                 	db	32
   188  001050  3C                 	db	60	;'<'
   189  001051  72                 	db	114	;'r'
   190  001052  65                 	db	101	;'e'
   191  001053  73                 	db	115	;'s'
   192  001054  65                 	db	101	;'e'
   193  001055  74                 	db	116	;'t'
   194  001056  3E                 	db	62	;'>'
   195  001057  20                 	db	32
   196  001058  00                 	db	0
   197  001059                     STR_5:
   198  001059  3C                 	db	60	;'<'
   199  00105A  53                 	db	83	;'S'
   200  00105B  54                 	db	84	;'T'
   201  00105C  4B                 	db	75	;'K'
   202  00105D  46                 	db	70	;'F'
   203  00105E  55                 	db	85	;'U'
   204  00105F  4C                 	db	76	;'L'
   205  001060  3E                 	db	62	;'>'
   206  001061  00                 	db	0
   207  001062                     STR_4:
   208  001062  3C                 	db	60	;'<'
   209  001063  57                 	db	87	;'W'
   210  001064  44                 	db	68	;'D'
   211  001065  54                 	db	84	;'T'
   212  001066  20                 	db	32
   213  001067  54                 	db	84	;'T'
   214  001068  4F                 	db	79	;'O'
   215  001069  3E                 	db	62	;'>'
   216  00106A  00                 	db	0
   217  00106B                     STR_7:
   218  00106B  5C                 	db	92	;'\'
   219  00106C  3C                 	db	60	;'<'
   220  00106D  4C                 	db	76	;'L'
   221  00106E  56                 	db	86	;'V'
   222  00106F  44                 	db	68	;'D'
   223  001070  3E                 	db	62	;'>'
   224  001071  00                 	db	0
   225  001072                     STR_3:
   226  001072  3C                 	db	60	;'<'
   227  001073  42                 	db	66	;'B'
   228  001074  4F                 	db	79	;'O'
   229  001075  52                 	db	82	;'R'
   230  001076  3E                 	db	62	;'>'
   231  001077  00                 	db	0
   232  001078                     STR_2:
   233  001078  3C                 	db	60	;'<'
   234  001079  50                 	db	80	;'P'
   235  00107A  4F                 	db	79	;'O'
   236  00107B  52                 	db	82	;'R'
   237  00107C  3E                 	db	62	;'>'
   238  00107D  00                 	db	0
   239  00107E                     __end_of__stringdata:
   240                           	opt stack 0
   241                           
   242                           ; #config settings
   243  00107E  00                 	db	0	; dummy byte at the end
   244  0000                     
   245                           	psect	cinit
   246  00195E                     __pcinit:
   247                           	opt stack 0
   248  00195E                     start_initialization:
   249                           	opt stack 0
   250  00195E                     __initialization:
   251                           	opt stack 0
   252                           
   253                           ; Clear objects allocated to COMRAM (4 bytes)
   254  00195E  6A21               	clrf	(__pbssCOMRAM+3)& (0+255),c
   255  001960  6A20               	clrf	(__pbssCOMRAM+2)& (0+255),c
   256  001962  6A1F               	clrf	(__pbssCOMRAM+1)& (0+255),c
   257  001964  6A1E               	clrf	__pbssCOMRAM& (0+255),c
   258  001966                     end_of_initialization:
   259                           	opt stack 0
   260  001966                     __end_of__initialization:
   261                           	opt stack 0
   262  001966  0100               	movlb	0
   263  001968  EF47  F00B         	goto	_main	;jump to C main() function
   264                           
   265                           	psect	bssCOMRAM
   266  00001E                     __pbssCOMRAM:
   267                           	opt stack 0
   268  00001E                     _threshold:
   269                           	opt stack 0
   270  00001E                     	ds	2
   271  000020                     _SeeLine:
   272                           	opt stack 0
   273  000020                     	ds	1
   274  000021                     _lvd_flag:
   275                           	opt stack 0
   276  000021                     	ds	1
   277                           
   278                           	psect	cstackCOMRAM
   279  000001                     __pcstackCOMRAM:
   280                           	opt stack 0
   281  000001                     ??_high_isr:
   282  000001                     
   283                           ; 1 bytes @ 0x0
   284  000001                     	ds	14
   285  00000F                     ??_set_leds:
   286  00000F                     ??_OpenPWM2:
   287  00000F                     ??_SetChanADC:
   288  00000F                     ?_printf:
   289                           	opt stack 0
   290  00000F                     ?_ReadADC:
   291                           	opt stack 0
   292  00000F                     OpenADC@config2:
   293                           	opt stack 0
   294  00000F                     OpenPWM1@period:
   295                           	opt stack 0
   296  00000F                     OpenTimer2@config:
   297                           	opt stack 0
   298  00000F                     set_osc_32MHz@i:
   299                           	opt stack 0
   300  00000F                     printf@f:
   301                           	opt stack 0
   302  00000F                     SetDCPWM1@dutycycle:
   303                           	opt stack 0
   304  00000F                     SetDCPWM2@dutycycle:
   305                           	opt stack 0
   306  00000F                     OpenUSART@spbrg:
   307                           	opt stack 0
   308  00000F                     gtrap@count:
   309                           	opt stack 0
   310                           
   311                           ; 4 bytes @ 0xE
   312  00000F                     	ds	1
   313  000010                     OpenADC@portconfig:
   314                           	opt stack 0
   315  000010                     SetChanADC@channel:
   316                           	opt stack 0
   317  000010                     OpenPWM2@period:
   318                           	opt stack 0
   319                           
   320                           ; 1 bytes @ 0xF
   321  000010                     	ds	1
   322  000011                     ??_OpenUSART:
   323  000011                     ??_OpenADC:
   324  000011                     ??_SetDCPWM1:
   325  000011                     ??_SetDCPWM2:
   326  000011                     ?_adc:
   327                           	opt stack 0
   328  000011                     OpenPWM2@ccp2mx:
   329                           	opt stack 0
   330  000011                     printf@ap:
   331                           	opt stack 0
   332                           
   333                           ; 2 bytes @ 0x10
   334  000011                     	ds	2
   335  000013                     adc@channel:
   336                           	opt stack 0
   337  000013                     printf@c:
   338                           	opt stack 0
   339  000013                     OpenADC@config:
   340                           	opt stack 0
   341  000013                     SetDCPWM1@DCycle:
   342                           	opt stack 0
   343  000013                     SetDCPWM2@DCycle:
   344                           	opt stack 0
   345                           
   346                           ; 2 bytes @ 0x12
   347  000013                     	ds	1
   348  000014                     ??_check_sensors:
   349  000014                     OpenUSART@config:
   350                           	opt stack 0
   351  000014                     PORtask@count1:
   352                           	opt stack 0
   353                           
   354                           ; 4 bytes @ 0x13
   355  000014                     	ds	1
   356  000015                     set_motor_speed@motor_speed:
   357                           	opt stack 0
   358                           
   359                           ; 1 bytes @ 0x14
   360  000015                     	ds	1
   361  000016                     set_motor_speed@speed_modifier:
   362                           	opt stack 0
   363                           
   364                           ; 2 bytes @ 0x15
   365  000016                     	ds	2
   366  000018                     ??_set_motor_speed:
   367  000018                     PORtask@count2:
   368                           	opt stack 0
   369                           
   370                           ; 4 bytes @ 0x17
   371  000018                     	ds	2
   372  00001A                     set_motor_speed@the_motor:
   373                           	opt stack 0
   374                           
   375                           ; 1 bytes @ 0x19
   376  00001A                     	ds	1
   377  00001B                     set_motor_speed@dir_modifier:
   378                           	opt stack 0
   379                           
   380                           ; 1 bytes @ 0x1A
   381  00001B                     	ds	1
   382  00001C                     set_motor_speed@duty_cycle:
   383                           	opt stack 0
   384                           
   385                           ; 2 bytes @ 0x1B
   386  00001C                     	ds	2
   387  00001E                     
   388                           ; 0 bytes @ 0x1D
   389 ;;
   390 ;;Main: autosize = 0, tempsize = 0, incstack = 0, save=0
   391 ;;
   392 ;; *************** function _main *****************
   393 ;; Defined at:
   394 ;;		line 9 in file "../main.c"
   395 ;; Parameters:    Size  Location     Type
   396 ;;		None
   397 ;; Auto vars:     Size  Location     Type
   398 ;;		None
   399 ;; Return value:  Size  Location     Type
   400 ;;		None               void
   401 ;; Registers used:
   402 ;;		wreg, status,2, status,0, tblptrl, tblptrh, tblptru, prodl, prodh, cstack
   403 ;; Tracked objects:
   404 ;;		On entry : 0/0
   405 ;;		On exit  : 0/0
   406 ;;		Unchanged: 0/0
   407 ;; Data sizes:     COMRAM   BANK0   BANK1   BANK2   BANK3   BANK4   BANK5   BANK6   BANK7   BANK8   BANK9  BANK10  BANK1
      +1  BANK12  BANK13  BANK14  BANK15
   408 ;;      Params:         0       0       0       0       0       0       0       0       0       0       0       0       
      +0       0       0       0       0
   409 ;;      Locals:         0       0       0       0       0       0       0       0       0       0       0       0       
      +0       0       0       0       0
   410 ;;      Temps:          0       0       0       0       0       0       0       0       0       0       0       0       
      +0       0       0       0       0
   411 ;;      Totals:         0       0       0       0       0       0       0       0       0       0       0       0       
      +0       0       0       0       0
   412 ;;Total ram usage:        0 bytes
   413 ;; Hardware stack levels required when called:    6
   414 ;; This function calls:
   415 ;;		_LVtrap
   416 ;;		_check_sensors
   417 ;;		_initialization
   418 ;;		_lvd_flag_set
   419 ;;		_motor_control
   420 ;;		_printf
   421 ;;		_set_leds
   422 ;; This function is called by:
   423 ;;		Startup code after reset
   424 ;; This function uses a non-reentrant model
   425 ;;
   426                           
   427                           	psect	text0
   428  00168E                     __ptext0:
   429                           	opt stack 0
   430  00168E                     _main:
   431                           	opt stack 25
   432                           
   433                           ;main.c: 12: initialization();
   434                           
   435                           ;incstack = 0
   436  00168E  EC5C  F009         	call	_initialization	;wreg free
   437                           
   438                           ;main.c: 17: printf("\n\rKwantlen APSC1299 simple curve follower -- with error codes\n\r
      +                          ");
   439  001692  0E10               	movlw	high STR_1
   440  001694  6E10               	movwf	printf@f+1,c
   441  001696  0E0F               	movlw	low STR_1
   442  001698  6E0F               	movwf	printf@f,c
   443  00169A  EC77  F00B         	call	_printf	;wreg free
   444  00169E  0004               	clrwdt		;# 
   445  0016A0                     l1588:
   446                           
   447                           ;main.c: 24: {
   448                           ;main.c: 25: check_sensors();
   449  0016A0  ECA5  F008         	call	_check_sensors	;wreg free
   450                           
   451                           ;main.c: 26: set_leds();
   452  0016A4  ECA4  F009         	call	_set_leds	;wreg free
   453                           
   454                           ;main.c: 31: motor_control();
   455  0016A8  EC2B  F00B         	call	_motor_control	;wreg free
   456  0016AC  0004               	clrwdt		;# 
   457                           
   458                           ;main.c: 33: if(lvd_flag_set()) LVtrap();
   459  0016AE  ECE1  F00C         	call	_lvd_flag_set	;wreg free
   460  0016B2  0900               	iorlw	0
   461  0016B4  B4D8               	btfsc	status,2,c
   462  0016B6  D7F4               	goto	l1588
   463  0016B8  EC32  F00C         	call	_LVtrap	;wreg free
   464  0016BC  D7F1               	goto	l1588
   465  0016BE                     __end_of_main:
   466                           	opt stack 0
   467                           status	equ	0xFD8
   468                           
   469 ;; *************** function _set_leds *****************
   470 ;; Defined at:
   471 ;;		line 255 in file "../sumovore.c"
   472 ;; Parameters:    Size  Location     Type
   473 ;;		None
   474 ;; Auto vars:     Size  Location     Type
   475 ;;		None
   476 ;; Return value:  Size  Location     Type
   477 ;;		None               void
   478 ;; Registers used:
   479 ;;		wreg, status,2, status,0
   480 ;; Tracked objects:
   481 ;;		On entry : 0/0
   482 ;;		On exit  : 0/0
   483 ;;		Unchanged: 0/0
   484 ;; Data sizes:     COMRAM   BANK0   BANK1   BANK2   BANK3   BANK4   BANK5   BANK6   BANK7   BANK8   BANK9  BANK10  BANK1
      +1  BANK12  BANK13  BANK14  BANK15
   485 ;;      Params:         0       0       0       0       0       0       0       0       0       0       0       0       
      +0       0       0       0       0
   486 ;;      Locals:         0       0       0       0       0       0       0       0       0       0       0       0       
      +0       0       0       0       0
   487 ;;      Temps:          1       0       0       0       0       0       0       0       0       0       0       0       
      +0       0       0       0       0
   488 ;;      Totals:         1       0       0       0       0       0       0       0       0       0       0       0       
      +0       0       0       0       0
   489 ;;Total ram usage:        1 bytes
   490 ;; Hardware stack levels used:    1
   491 ;; Hardware stack levels required when called:    1
   492 ;; This function calls:
   493 ;;		Nothing
   494 ;; This function is called by:
   495 ;;		_main
   496 ;; This function uses a non-reentrant model
   497 ;;
   498                           
   499                           	psect	text1
   500  001348                     __ptext1:
   501                           	opt stack 0
   502  001348                     _set_leds:
   503                           	opt stack 29
   504                           
   505                           ;sumovore.c: 257: PORTDbits.RD0=!SeeLine.b.Left;
   506                           
   507                           ;incstack = 0
   508  001348  B820               	btfsc	_SeeLine,4,c
   509  00134A  D002               	goto	u580
   510  00134C  0E01               	movlw	1
   511  00134E  D001               	goto	u586
   512  001350                     u580:
   513  001350  0E00               	movlw	0
   514  001352                     u586:
   515  001352  6E0F               	movwf	??_set_leds& (0+255),c
   516  001354  5083               	movf	3971,w,c	;volatile
   517  001356  180F               	xorwf	??_set_leds,w,c
   518  001358  0BFE               	andlw	-2
   519  00135A  180F               	xorwf	??_set_leds,w,c
   520  00135C  6E83               	movwf	3971,c	;volatile
   521                           
   522                           ;sumovore.c: 258: PORTDbits.RD1=!SeeLine.b.CntLeft;
   523  00135E  B620               	btfsc	_SeeLine,3,c
   524  001360  D002               	goto	u590
   525  001362  0E01               	movlw	1
   526  001364  D001               	goto	u596
   527  001366                     u590:
   528  001366  0E00               	movlw	0
   529  001368                     u596:
   530  001368  6E0F               	movwf	??_set_leds& (0+255),c
   531  00136A  460F               	rlncf	??_set_leds,f,c
   532  00136C  5083               	movf	3971,w,c	;volatile
   533  00136E  180F               	xorwf	??_set_leds,w,c
   534  001370  0BFD               	andlw	-3
   535  001372  180F               	xorwf	??_set_leds,w,c
   536  001374  6E83               	movwf	3971,c	;volatile
   537                           
   538                           ;sumovore.c: 259: PORTDbits.RD2=!SeeLine.b.Center;
   539  001376  B420               	btfsc	_SeeLine,2,c
   540  001378  D002               	goto	u600
   541  00137A  0E01               	movlw	1
   542  00137C  D001               	goto	u606
   543  00137E                     u600:
   544  00137E  0E00               	movlw	0
   545  001380                     u606:
   546  001380  6E0F               	movwf	??_set_leds& (0+255),c
   547  001382  460F               	rlncf	??_set_leds,f,c
   548  001384  460F               	rlncf	??_set_leds,f,c
   549  001386  5083               	movf	3971,w,c	;volatile
   550  001388  180F               	xorwf	??_set_leds,w,c
   551  00138A  0BFB               	andlw	-5
   552  00138C  180F               	xorwf	??_set_leds,w,c
   553  00138E  6E83               	movwf	3971,c	;volatile
   554                           
   555                           ;sumovore.c: 260: PORTDbits.RD3=!SeeLine.b.CntRight;
   556  001390  B220               	btfsc	_SeeLine,1,c
   557  001392  D002               	goto	u610
   558  001394  0E01               	movlw	1
   559  001396  D001               	goto	u616
   560  001398                     u610:
   561  001398  0E00               	movlw	0
   562  00139A                     u616:
   563  00139A  6E0F               	movwf	??_set_leds& (0+255),c
   564  00139C  460F               	rlncf	??_set_leds,f,c
   565  00139E  460F               	rlncf	??_set_leds,f,c
   566  0013A0  460F               	rlncf	??_set_leds,f,c
   567  0013A2  5083               	movf	3971,w,c	;volatile
   568  0013A4  180F               	xorwf	??_set_leds,w,c
   569  0013A6  0BF7               	andlw	-9
   570  0013A8  180F               	xorwf	??_set_leds,w,c
   571  0013AA  6E83               	movwf	3971,c	;volatile
   572                           
   573                           ;sumovore.c: 261: PORTDbits.RD4=!SeeLine.b.Right;
   574  0013AC  B020               	btfsc	_SeeLine,0,c
   575  0013AE  D002               	goto	u620
   576  0013B0  0E01               	movlw	1
   577  0013B2  D001               	goto	u626
   578  0013B4                     u620:
   579  0013B4  0E00               	movlw	0
   580  0013B6                     u626:
   581  0013B6  6E0F               	movwf	??_set_leds& (0+255),c
   582  0013B8  3A0F               	swapf	??_set_leds,f,c
   583  0013BA  5083               	movf	3971,w,c	;volatile
   584  0013BC  180F               	xorwf	??_set_leds,w,c
   585  0013BE  0BEF               	andlw	-17
   586  0013C0  180F               	xorwf	??_set_leds,w,c
   587  0013C2  6E83               	movwf	3971,c	;volatile
   588  0013C4  0012               	return	
   589  0013C6                     __end_of_set_leds:
   590                           	opt stack 0
   591                           status	equ	0xFD8
   592                           
   593 ;; *************** function _motor_control *****************
   594 ;; Defined at:
   595 ;;		line 11 in file "../motor_control.c"
   596 ;; Parameters:    Size  Location     Type
   597 ;;		None
   598 ;; Auto vars:     Size  Location     Type
   599 ;;		None
   600 ;; Return value:  Size  Location     Type
   601 ;;		None               void
   602 ;; Registers used:
   603 ;;		wreg, status,2, status,0, tblptrl, tblptrh, tblptru, prodl, prodh, cstack
   604 ;; Tracked objects:
   605 ;;		On entry : 0/0
   606 ;;		On exit  : 0/0
   607 ;;		Unchanged: 0/0
   608 ;; Data sizes:     COMRAM   BANK0   BANK1   BANK2   BANK3   BANK4   BANK5   BANK6   BANK7   BANK8   BANK9  BANK10  BANK1
      +1  BANK12  BANK13  BANK14  BANK15
   609 ;;      Params:         0       0       0       0       0       0       0       0       0       0       0       0       
      +0       0       0       0       0
   610 ;;      Locals:         0       0       0       0       0       0       0       0       0       0       0       0       
      +0       0       0       0       0
   611 ;;      Temps:          0       0       0       0       0       0       0       0       0       0       0       0       
      +0       0       0       0       0
   612 ;;      Totals:         0       0       0       0       0       0       0       0       0       0       0       0       
      +0       0       0       0       0
   613 ;;Total ram usage:        0 bytes
   614 ;; Hardware stack levels used:    1
   615 ;; Hardware stack levels required when called:    5
   616 ;; This function calls:
   617 ;;		_follow_simple_curves
   618 ;;		_motors_brake_all
   619 ;; This function is called by:
   620 ;;		_main
   621 ;; This function uses a non-reentrant model
   622 ;;
   623                           
   624                           	psect	text2
   625  001656                     __ptext2:
   626                           	opt stack 0
   627  001656                     _motor_control:
   628                           	opt stack 25
   629                           
   630                           ;motor_control.c: 14: switch(SeeLine.B)
   631                           
   632                           ;incstack = 0
   633  001656  D006               	goto	l1560
   634  001658                     l1554:
   635                           
   636                           ;motor_control.c: 17: case 0b00010u:
   637                           ;motor_control.c: 18: case 0b01000u:
   638                           ;motor_control.c: 19: case 0b00001u:
   639                           ;motor_control.c: 20: case 0b10000u:
   640                           ;motor_control.c: 22: follow_simple_curves();
   641  001658  EC5F  F00B         	call	_follow_simple_curves	;wreg free
   642                           
   643                           ;motor_control.c: 23: break;
   644  00165C  D017               	goto	l75
   645  00165E                     l1556:
   646                           
   647                           ;motor_control.c: 25: motors_brake_all();
   648  00165E  EC11  F00C         	call	_motors_brake_all	;wreg free
   649                           
   650                           ;motor_control.c: 26: break;
   651  001662  D014               	goto	l75
   652  001664                     l1560:
   653  001664  5020               	movf	_SeeLine,w,c
   654  001666  0B1F               	andlw	31
   655                           
   656                           ; Switch size 1, requested type "space"
   657                           ; Number of cases is 6, Range of values is 0 to 16
   658                           ; switch strategies available:
   659                           ; Name         Instructions Cycles
   660                           ; simple_byte           19    10 (average)
   661                           ;	Chosen strategy is simple_byte
   662  001668  0A00               	xorlw	0	; case 0
   663  00166A  B4D8               	btfsc	status,2,c
   664  00166C  D7F8               	goto	l1556
   665  00166E  0A01               	xorlw	1	; case 1
   666  001670  B4D8               	btfsc	status,2,c
   667  001672  D7F2               	goto	l1554
   668  001674  0A03               	xorlw	3	; case 2
   669  001676  B4D8               	btfsc	status,2,c
   670  001678  D7EF               	goto	l1554
   671  00167A  0A06               	xorlw	6	; case 4
   672  00167C  B4D8               	btfsc	status,2,c
   673  00167E  D7EC               	goto	l1554
   674  001680  0A0C               	xorlw	12	; case 8
   675  001682  B4D8               	btfsc	status,2,c
   676  001684  D7E9               	goto	l1554
   677  001686  0A18               	xorlw	24	; case 16
   678  001688  B4D8               	btfsc	status,2,c
   679  00168A  D7E6               	goto	l1554
   680  00168C                     l75:
   681  00168C  0012               	return	
   682  00168E                     __end_of_motor_control:
   683                           	opt stack 0
   684                           status	equ	0xFD8
   685                           
   686 ;; *************** function _motors_brake_all *****************
   687 ;; Defined at:
   688 ;;		line 218 in file "../sumovore.c"
   689 ;; Parameters:    Size  Location     Type
   690 ;;		None
   691 ;; Auto vars:     Size  Location     Type
   692 ;;		None
   693 ;; Return value:  Size  Location     Type
   694 ;;		None               void
   695 ;; Registers used:
   696 ;;		wreg, status,2, status,0, cstack
   697 ;; Tracked objects:
   698 ;;		On entry : 0/0
   699 ;;		On exit  : 0/0
   700 ;;		Unchanged: 0/0
   701 ;; Data sizes:     COMRAM   BANK0   BANK1   BANK2   BANK3   BANK4   BANK5   BANK6   BANK7   BANK8   BANK9  BANK10  BANK1
      +1  BANK12  BANK13  BANK14  BANK15
   702 ;;      Params:         0       0       0       0       0       0       0       0       0       0       0       0       
      +0       0       0       0       0
   703 ;;      Locals:         0       0       0       0       0       0       0       0       0       0       0       0       
      +0       0       0       0       0
   704 ;;      Temps:          0       0       0       0       0       0       0       0       0       0       0       0       
      +0       0       0       0       0
   705 ;;      Totals:         0       0       0       0       0       0       0       0       0       0       0       0       
      +0       0       0       0       0
   706 ;;Total ram usage:        0 bytes
   707 ;; Hardware stack levels used:    1
   708 ;; Hardware stack levels required when called:    2
   709 ;; This function calls:
   710 ;;		_SetDCPWM1
   711 ;;		_SetDCPWM2
   712 ;; This function is called by:
   713 ;;		_motor_control
   714 ;; This function uses a non-reentrant model
   715 ;;
   716                           
   717                           	psect	text3
   718  001822                     __ptext3:
   719                           	opt stack 0
   720  001822                     _motors_brake_all:
   721                           	opt stack 27
   722                           
   723                           ;sumovore.c: 220: SetDCPWM1(800u );
   724                           
   725                           ;incstack = 0
   726  001822  0E03               	movlw	3
   727  001824  6E10               	movwf	SetDCPWM1@dutycycle+1,c
   728  001826  0E20               	movlw	32
   729  001828  6E0F               	movwf	SetDCPWM1@dutycycle,c
   730  00182A  ECF1  F00A         	call	_SetDCPWM1	;wreg free
   731                           
   732                           ;sumovore.c: 221: SetDCPWM2(800u );
   733  00182E  0E03               	movlw	3
   734  001830  6E10               	movwf	SetDCPWM2@dutycycle+1,c
   735  001832  0E20               	movlw	32
   736  001834  6E0F               	movwf	SetDCPWM2@dutycycle,c
   737  001836  ECD4  F00A         	call	_SetDCPWM2	;wreg free
   738                           
   739                           ;sumovore.c: 222: PORTEbits.RE1 = 0b0;
   740  00183A  9284               	bcf	3972,1,c	;volatile
   741                           
   742                           ;sumovore.c: 223: PORTCbits.RC0 = 0b0;
   743  00183C  9082               	bcf	3970,0,c	;volatile
   744                           
   745                           ;sumovore.c: 224: PORTEbits.RE0 = 0b0;
   746  00183E  9084               	bcf	3972,0,c	;volatile
   747                           
   748                           ;sumovore.c: 225: PORTCbits.RC5 = 0b0;
   749  001840  9A82               	bcf	3970,5,c	;volatile
   750  001842  0012               	return	
   751  001844                     __end_of_motors_brake_all:
   752                           	opt stack 0
   753                           status	equ	0xFD8
   754                           
   755 ;; *************** function _follow_simple_curves *****************
   756 ;; Defined at:
   757 ;;		line 31 in file "../motor_control.c"
   758 ;; Parameters:    Size  Location     Type
   759 ;;		None
   760 ;; Auto vars:     Size  Location     Type
   761 ;;		None
   762 ;; Return value:  Size  Location     Type
   763 ;;		None               void
   764 ;; Registers used:
   765 ;;		wreg, status,2, status,0, tblptrl, tblptrh, tblptru, prodl, prodh, cstack
   766 ;; Tracked objects:
   767 ;;		On entry : 0/0
   768 ;;		On exit  : 0/0
   769 ;;		Unchanged: 0/0
   770 ;; Data sizes:     COMRAM   BANK0   BANK1   BANK2   BANK3   BANK4   BANK5   BANK6   BANK7   BANK8   BANK9  BANK10  BANK1
      +1  BANK12  BANK13  BANK14  BANK15
   771 ;;      Params:         0       0       0       0       0       0       0       0       0       0       0       0       
      +0       0       0       0       0
   772 ;;      Locals:         0       0       0       0       0       0       0       0       0       0       0       0       
      +0       0       0       0       0
   773 ;;      Temps:          0       0       0       0       0       0       0       0       0       0       0       0       
      +0       0       0       0       0
   774 ;;      Totals:         0       0       0       0       0       0       0       0       0       0       0       0       
      +0       0       0       0       0
   775 ;;Total ram usage:        0 bytes
   776 ;; Hardware stack levels used:    1
   777 ;; Hardware stack levels required when called:    4
   778 ;; This function calls:
   779 ;;		_spin_left
   780 ;;		_spin_right
   781 ;;		_straight_fwd
   782 ;;		_turn_left
   783 ;;		_turn_right
   784 ;; This function is called by:
   785 ;;		_motor_control
   786 ;; This function uses a non-reentrant model
   787 ;;
   788                           
   789                           	psect	text4
   790  0016BE                     __ptext4:
   791                           	opt stack 0
   792  0016BE                     _follow_simple_curves:
   793                           	opt stack 25
   794                           
   795                           ;motor_control.c: 33: if ( SeeLine.b.Center ) straight_fwd();
   796                           
   797                           ;incstack = 0
   798  0016BE  A420               	btfss	_SeeLine,2,c
   799  0016C0  D003               	goto	l78
   800  0016C2  ECC6  F00B         	call	_straight_fwd	;wreg free
   801  0016C6  D012               	goto	l87
   802  0016C8                     l78:
   803                           
   804                           ;motor_control.c: 34: else if (SeeLine.b.Left) spin_left();
   805  0016C8  A820               	btfss	_SeeLine,4,c
   806  0016CA  D003               	goto	l80
   807  0016CC  ECEC  F00B         	call	_spin_left	;wreg free
   808  0016D0  D00D               	goto	l87
   809  0016D2                     l80:
   810                           
   811                           ;motor_control.c: 35: else if (SeeLine.b.CntLeft) turn_left();
   812  0016D2  A620               	btfss	_SeeLine,3,c
   813  0016D4  D003               	goto	l82
   814  0016D6  ECB3  F00B         	call	_turn_left	;wreg free
   815  0016DA  D008               	goto	l87
   816  0016DC                     l82:
   817                           
   818                           ;motor_control.c: 36: else if (SeeLine.b.CntRight) turn_right();
   819  0016DC  A220               	btfss	_SeeLine,1,c
   820  0016DE  D003               	goto	l84
   821  0016E0  ECA0  F00B         	call	_turn_right	;wreg free
   822  0016E4  D003               	goto	l87
   823  0016E6                     l84:
   824                           
   825                           ;motor_control.c: 37: else if (SeeLine.b.Right) spin_right();
   826  0016E6  B020               	btfsc	_SeeLine,0,c
   827  0016E8  ECD9  F00B         	call	_spin_right	;wreg free
   828  0016EC                     l87:
   829  0016EC  0012               	return	
   830  0016EE                     __end_of_follow_simple_curves:
   831                           	opt stack 0
   832                           status	equ	0xFD8
   833                           
   834 ;; *************** function _turn_right *****************
   835 ;; Defined at:
   836 ;;		line 61 in file "../motor_control.c"
   837 ;; Parameters:    Size  Location     Type
   838 ;;		None
   839 ;; Auto vars:     Size  Location     Type
   840 ;;		None
   841 ;; Return value:  Size  Location     Type
   842 ;;		None               void
   843 ;; Registers used:
   844 ;;		wreg, status,2, status,0, tblptrl, tblptrh, tblptru, prodl, prodh, cstack
   845 ;; Tracked objects:
   846 ;;		On entry : 0/0
   847 ;;		On exit  : 0/0
   848 ;;		Unchanged: 0/0
   849 ;; Data sizes:     COMRAM   BANK0   BANK1   BANK2   BANK3   BANK4   BANK5   BANK6   BANK7   BANK8   BANK9  BANK10  BANK1
      +1  BANK12  BANK13  BANK14  BANK15
   850 ;;      Params:         0       0       0       0       0       0       0       0       0       0       0       0       
      +0       0       0       0       0
   851 ;;      Locals:         0       0       0       0       0       0       0       0       0       0       0       0       
      +0       0       0       0       0
   852 ;;      Temps:          0       0       0       0       0       0       0       0       0       0       0       0       
      +0       0       0       0       0
   853 ;;      Totals:         0       0       0       0       0       0       0       0       0       0       0       0       
      +0       0       0       0       0
   854 ;;Total ram usage:        0 bytes
   855 ;; Hardware stack levels used:    1
   856 ;; Hardware stack levels required when called:    3
   857 ;; This function calls:
   858 ;;		_set_motor_speed
   859 ;; This function is called by:
   860 ;;		_follow_simple_curves
   861 ;; This function uses a non-reentrant model
   862 ;;
   863                           
   864                           	psect	text5
   865  001740                     __ptext5:
   866                           	opt stack 0
   867  001740                     _turn_right:
   868                           	opt stack 25
   869                           
   870                           ;motor_control.c: 63: set_motor_speed(left, fast, 0);
   871                           
   872                           ;incstack = 0
   873  001740  0E06               	movlw	6
   874  001742  6E15               	movwf	set_motor_speed@motor_speed,c
   875  001744  0E00               	movlw	0
   876  001746  6E17               	movwf	set_motor_speed@speed_modifier+1,c
   877  001748  0E00               	movlw	0
   878  00174A  6E16               	movwf	set_motor_speed@speed_modifier,c
   879  00174C  0E00               	movlw	0
   880  00174E  EC40  F008         	call	_set_motor_speed
   881                           
   882                           ;motor_control.c: 64: set_motor_speed(right, stop, 0);
   883  001752  0E03               	movlw	3
   884  001754  6E15               	movwf	set_motor_speed@motor_speed,c
   885  001756  0E00               	movlw	0
   886  001758  6E17               	movwf	set_motor_speed@speed_modifier+1,c
   887  00175A  0E00               	movlw	0
   888  00175C  6E16               	movwf	set_motor_speed@speed_modifier,c
   889  00175E  0E01               	movlw	1
   890  001760  EC40  F008         	call	_set_motor_speed
   891  001764  0012               	return	
   892  001766                     __end_of_turn_right:
   893                           	opt stack 0
   894                           status	equ	0xFD8
   895                           
   896 ;; *************** function _turn_left *****************
   897 ;; Defined at:
   898 ;;		line 46 in file "../motor_control.c"
   899 ;; Parameters:    Size  Location     Type
   900 ;;		None
   901 ;; Auto vars:     Size  Location     Type
   902 ;;		None
   903 ;; Return value:  Size  Location     Type
   904 ;;		None               void
   905 ;; Registers used:
   906 ;;		wreg, status,2, status,0, tblptrl, tblptrh, tblptru, prodl, prodh, cstack
   907 ;; Tracked objects:
   908 ;;		On entry : 0/0
   909 ;;		On exit  : 0/0
   910 ;;		Unchanged: 0/0
   911 ;; Data sizes:     COMRAM   BANK0   BANK1   BANK2   BANK3   BANK4   BANK5   BANK6   BANK7   BANK8   BANK9  BANK10  BANK1
      +1  BANK12  BANK13  BANK14  BANK15
   912 ;;      Params:         0       0       0       0       0       0       0       0       0       0       0       0       
      +0       0       0       0       0
   913 ;;      Locals:         0       0       0       0       0       0       0       0       0       0       0       0       
      +0       0       0       0       0
   914 ;;      Temps:          0       0       0       0       0       0       0       0       0       0       0       0       
      +0       0       0       0       0
   915 ;;      Totals:         0       0       0       0       0       0       0       0       0       0       0       0       
      +0       0       0       0       0
   916 ;;Total ram usage:        0 bytes
   917 ;; Hardware stack levels used:    1
   918 ;; Hardware stack levels required when called:    3
   919 ;; This function calls:
   920 ;;		_set_motor_speed
   921 ;; This function is called by:
   922 ;;		_follow_simple_curves
   923 ;; This function uses a non-reentrant model
   924 ;;
   925                           
   926                           	psect	text6
   927  001766                     __ptext6:
   928                           	opt stack 0
   929  001766                     _turn_left:
   930                           	opt stack 25
   931                           
   932                           ;motor_control.c: 48: set_motor_speed(left, stop, 0);
   933                           
   934                           ;incstack = 0
   935  001766  0E03               	movlw	3
   936  001768  6E15               	movwf	set_motor_speed@motor_speed,c
   937  00176A  0E00               	movlw	0
   938  00176C  6E17               	movwf	set_motor_speed@speed_modifier+1,c
   939  00176E  0E00               	movlw	0
   940  001770  6E16               	movwf	set_motor_speed@speed_modifier,c
   941  001772  0E00               	movlw	0
   942  001774  EC40  F008         	call	_set_motor_speed
   943                           
   944                           ;motor_control.c: 49: set_motor_speed(right, fast, 0);
   945  001778  0E06               	movlw	6
   946  00177A  6E15               	movwf	set_motor_speed@motor_speed,c
   947  00177C  0E00               	movlw	0
   948  00177E  6E17               	movwf	set_motor_speed@speed_modifier+1,c
   949  001780  0E00               	movlw	0
   950  001782  6E16               	movwf	set_motor_speed@speed_modifier,c
   951  001784  0E01               	movlw	1
   952  001786  EC40  F008         	call	_set_motor_speed
   953  00178A  0012               	return	
   954  00178C                     __end_of_turn_left:
   955                           	opt stack 0
   956                           status	equ	0xFD8
   957                           
   958 ;; *************** function _straight_fwd *****************
   959 ;; Defined at:
   960 ;;		line 51 in file "../motor_control.c"
   961 ;; Parameters:    Size  Location     Type
   962 ;;		None
   963 ;; Auto vars:     Size  Location     Type
   964 ;;		None
   965 ;; Return value:  Size  Location     Type
   966 ;;		None               void
   967 ;; Registers used:
   968 ;;		wreg, status,2, status,0, tblptrl, tblptrh, tblptru, prodl, prodh, cstack
   969 ;; Tracked objects:
   970 ;;		On entry : 0/0
   971 ;;		On exit  : 0/0
   972 ;;		Unchanged: 0/0
   973 ;; Data sizes:     COMRAM   BANK0   BANK1   BANK2   BANK3   BANK4   BANK5   BANK6   BANK7   BANK8   BANK9  BANK10  BANK1
      +1  BANK12  BANK13  BANK14  BANK15
   974 ;;      Params:         0       0       0       0       0       0       0       0       0       0       0       0       
      +0       0       0       0       0
   975 ;;      Locals:         0       0       0       0       0       0       0       0       0       0       0       0       
      +0       0       0       0       0
   976 ;;      Temps:          0       0       0       0       0       0       0       0       0       0       0       0       
      +0       0       0       0       0
   977 ;;      Totals:         0       0       0       0       0       0       0       0       0       0       0       0       
      +0       0       0       0       0
   978 ;;Total ram usage:        0 bytes
   979 ;; Hardware stack levels used:    1
   980 ;; Hardware stack levels required when called:    3
   981 ;; This function calls:
   982 ;;		_set_motor_speed
   983 ;; This function is called by:
   984 ;;		_follow_simple_curves
   985 ;; This function uses a non-reentrant model
   986 ;;
   987                           
   988                           	psect	text7
   989  00178C                     __ptext7:
   990                           	opt stack 0
   991  00178C                     _straight_fwd:
   992                           	opt stack 25
   993                           
   994                           ;motor_control.c: 53: set_motor_speed(left, fast, 0);
   995                           
   996                           ;incstack = 0
   997  00178C  0E06               	movlw	6
   998  00178E  6E15               	movwf	set_motor_speed@motor_speed,c
   999  001790  0E00               	movlw	0
  1000  001792  6E17               	movwf	set_motor_speed@speed_modifier+1,c
  1001  001794  0E00               	movlw	0
  1002  001796  6E16               	movwf	set_motor_speed@speed_modifier,c
  1003  001798  0E00               	movlw	0
  1004  00179A  EC40  F008         	call	_set_motor_speed
  1005                           
  1006                           ;motor_control.c: 54: set_motor_speed(right, fast, 0);
  1007  00179E  0E06               	movlw	6
  1008  0017A0  6E15               	movwf	set_motor_speed@motor_speed,c
  1009  0017A2  0E00               	movlw	0
  1010  0017A4  6E17               	movwf	set_motor_speed@speed_modifier+1,c
  1011  0017A6  0E00               	movlw	0
  1012  0017A8  6E16               	movwf	set_motor_speed@speed_modifier,c
  1013  0017AA  0E01               	movlw	1
  1014  0017AC  EC40  F008         	call	_set_motor_speed
  1015  0017B0  0012               	return	
  1016  0017B2                     __end_of_straight_fwd:
  1017                           	opt stack 0
  1018                           status	equ	0xFD8
  1019                           
  1020 ;; *************** function _spin_right *****************
  1021 ;; Defined at:
  1022 ;;		line 56 in file "../motor_control.c"
  1023 ;; Parameters:    Size  Location     Type
  1024 ;;		None
  1025 ;; Auto vars:     Size  Location     Type
  1026 ;;		None
  1027 ;; Return value:  Size  Location     Type
  1028 ;;		None               void
  1029 ;; Registers used:
  1030 ;;		wreg, status,2, status,0, tblptrl, tblptrh, tblptru, prodl, prodh, cstack
  1031 ;; Tracked objects:
  1032 ;;		On entry : 0/0
  1033 ;;		On exit  : 0/0
  1034 ;;		Unchanged: 0/0
  1035 ;; Data sizes:     COMRAM   BANK0   BANK1   BANK2   BANK3   BANK4   BANK5   BANK6   BANK7   BANK8   BANK9  BANK10  BANK1
      +1  BANK12  BANK13  BANK14  BANK15
  1036 ;;      Params:         0       0       0       0       0       0       0       0       0       0       0       0       
      +0       0       0       0       0
  1037 ;;      Locals:         0       0       0       0       0       0       0       0       0       0       0       0       
      +0       0       0       0       0
  1038 ;;      Temps:          0       0       0       0       0       0       0       0       0       0       0       0       
      +0       0       0       0       0
  1039 ;;      Totals:         0       0       0       0       0       0       0       0       0       0       0       0       
      +0       0       0       0       0
  1040 ;;Total ram usage:        0 bytes
  1041 ;; Hardware stack levels used:    1
  1042 ;; Hardware stack levels required when called:    3
  1043 ;; This function calls:
  1044 ;;		_set_motor_speed
  1045 ;; This function is called by:
  1046 ;;		_follow_simple_curves
  1047 ;; This function uses a non-reentrant model
  1048 ;;
  1049                           
  1050                           	psect	text8
  1051  0017B2                     __ptext8:
  1052                           	opt stack 0
  1053  0017B2                     _spin_right:
  1054                           	opt stack 25
  1055                           
  1056                           ;motor_control.c: 58: set_motor_speed(left, fast, 0);
  1057                           
  1058                           ;incstack = 0
  1059  0017B2  0E06               	movlw	6
  1060  0017B4  6E15               	movwf	set_motor_speed@motor_speed,c
  1061  0017B6  0E00               	movlw	0
  1062  0017B8  6E17               	movwf	set_motor_speed@speed_modifier+1,c
  1063  0017BA  0E00               	movlw	0
  1064  0017BC  6E16               	movwf	set_motor_speed@speed_modifier,c
  1065  0017BE  0E00               	movlw	0
  1066  0017C0  EC40  F008         	call	_set_motor_speed
  1067                           
  1068                           ;motor_control.c: 59: set_motor_speed(right, rev_fast, 0);
  1069  0017C4  0E00               	movlw	0
  1070  0017C6  6E15               	movwf	set_motor_speed@motor_speed,c
  1071  0017C8  0E00               	movlw	0
  1072  0017CA  6E17               	movwf	set_motor_speed@speed_modifier+1,c
  1073  0017CC  0E00               	movlw	0
  1074  0017CE  6E16               	movwf	set_motor_speed@speed_modifier,c
  1075  0017D0  0E01               	movlw	1
  1076  0017D2  EC40  F008         	call	_set_motor_speed
  1077  0017D6  0012               	return	
  1078  0017D8                     __end_of_spin_right:
  1079                           	opt stack 0
  1080                           status	equ	0xFD8
  1081                           
  1082 ;; *************** function _spin_left *****************
  1083 ;; Defined at:
  1084 ;;		line 40 in file "../motor_control.c"
  1085 ;; Parameters:    Size  Location     Type
  1086 ;;		None
  1087 ;; Auto vars:     Size  Location     Type
  1088 ;;		None
  1089 ;; Return value:  Size  Location     Type
  1090 ;;		None               void
  1091 ;; Registers used:
  1092 ;;		wreg, status,2, status,0, tblptrl, tblptrh, tblptru, prodl, prodh, cstack
  1093 ;; Tracked objects:
  1094 ;;		On entry : 0/0
  1095 ;;		On exit  : 0/0
  1096 ;;		Unchanged: 0/0
  1097 ;; Data sizes:     COMRAM   BANK0   BANK1   BANK2   BANK3   BANK4   BANK5   BANK6   BANK7   BANK8   BANK9  BANK10  BANK1
      +1  BANK12  BANK13  BANK14  BANK15
  1098 ;;      Params:         0       0       0       0       0       0       0       0       0       0       0       0       
      +0       0       0       0       0
  1099 ;;      Locals:         0       0       0       0       0       0       0       0       0       0       0       0       
      +0       0       0       0       0
  1100 ;;      Temps:          0       0       0       0       0       0       0       0       0       0       0       0       
      +0       0       0       0       0
  1101 ;;      Totals:         0       0       0       0       0       0       0       0       0       0       0       0       
      +0       0       0       0       0
  1102 ;;Total ram usage:        0 bytes
  1103 ;; Hardware stack levels used:    1
  1104 ;; Hardware stack levels required when called:    3
  1105 ;; This function calls:
  1106 ;;		_set_motor_speed
  1107 ;; This function is called by:
  1108 ;;		_follow_simple_curves
  1109 ;; This function uses a non-reentrant model
  1110 ;;
  1111                           
  1112                           	psect	text9
  1113  0017D8                     __ptext9:
  1114                           	opt stack 0
  1115  0017D8                     _spin_left:
  1116                           	opt stack 25
  1117                           
  1118                           ;motor_control.c: 42: set_motor_speed(left, rev_fast, 0);
  1119                           
  1120                           ;incstack = 0
  1121  0017D8  0E00               	movlw	0
  1122  0017DA  6E15               	movwf	set_motor_speed@motor_speed,c
  1123  0017DC  0E00               	movlw	0
  1124  0017DE  6E17               	movwf	set_motor_speed@speed_modifier+1,c
  1125  0017E0  0E00               	movlw	0
  1126  0017E2  6E16               	movwf	set_motor_speed@speed_modifier,c
  1127  0017E4  0E00               	movlw	0
  1128  0017E6  EC40  F008         	call	_set_motor_speed
  1129                           
  1130                           ;motor_control.c: 43: set_motor_speed(right, fast, 0);
  1131  0017EA  0E06               	movlw	6
  1132  0017EC  6E15               	movwf	set_motor_speed@motor_speed,c
  1133  0017EE  0E00               	movlw	0
  1134  0017F0  6E17               	movwf	set_motor_speed@speed_modifier+1,c
  1135  0017F2  0E00               	movlw	0
  1136  0017F4  6E16               	movwf	set_motor_speed@speed_modifier,c
  1137  0017F6  0E01               	movlw	1
  1138  0017F8  EC40  F008         	call	_set_motor_speed
  1139  0017FC  0012               	return	
  1140  0017FE                     __end_of_spin_left:
  1141                           	opt stack 0
  1142                           status	equ	0xFD8
  1143                           
  1144 ;; *************** function _set_motor_speed *****************
  1145 ;; Defined at:
  1146 ;;		line 188 in file "../sumovore.c"
  1147 ;; Parameters:    Size  Location     Type
  1148 ;;  the_motor       1    wreg     enum E4111
  1149 ;;  motor_speed     1   20[COMRAM] enum E4103
  1150 ;;  speed_modifi    2   21[COMRAM] int 
  1151 ;; Auto vars:     Size  Location     Type
  1152 ;;  the_motor       1   25[COMRAM] enum E4111
  1153 ;;  duty_cycle      2   27[COMRAM] int 
  1154 ;;  dir_modifier    1   26[COMRAM] enum E4167
  1155 ;; Return value:  Size  Location     Type
  1156 ;;		None               void
  1157 ;; Registers used:
  1158 ;;		wreg, status,2, status,0, tblptrl, tblptrh, tblptru, prodl, prodh, cstack
  1159 ;; Tracked objects:
  1160 ;;		On entry : 0/0
  1161 ;;		On exit  : 0/0
  1162 ;;		Unchanged: 0/0
  1163 ;; Data sizes:     COMRAM   BANK0   BANK1   BANK2   BANK3   BANK4   BANK5   BANK6   BANK7   BANK8   BANK9  BANK10  BANK1
      +1  BANK12  BANK13  BANK14  BANK15
  1164 ;;      Params:         3       0       0       0       0       0       0       0       0       0       0       0       
      +0       0       0       0       0
  1165 ;;      Locals:         4       0       0       0       0       0       0       0       0       0       0       0       
      +0       0       0       0       0
  1166 ;;      Temps:          2       0       0       0       0       0       0       0       0       0       0       0       
      +0       0       0       0       0
  1167 ;;      Totals:         9       0       0       0       0       0       0       0       0       0       0       0       
      +0       0       0       0       0
  1168 ;;Total ram usage:        9 bytes
  1169 ;; Hardware stack levels used:    1
  1170 ;; Hardware stack levels required when called:    2
  1171 ;; This function calls:
  1172 ;;		_SetDCPWM1
  1173 ;;		_SetDCPWM2
  1174 ;; This function is called by:
  1175 ;;		_spin_left
  1176 ;;		_turn_left
  1177 ;;		_straight_fwd
  1178 ;;		_spin_right
  1179 ;;		_turn_right
  1180 ;; This function uses a non-reentrant model
  1181 ;;
  1182                           
  1183                           	psect	text10
  1184  001080                     __ptext10:
  1185                           	opt stack 0
  1186  001080                     _set_motor_speed:
  1187                           	opt stack 25
  1188                           
  1189                           ;incstack = 0
  1190                           ;set_motor_speed@the_motor stored from wreg
  1191  001080  6E1A               	movwf	set_motor_speed@the_motor,c
  1192                           
  1193                           ;sumovore.c: 190: const static int motor_speeds[] = { -800, -725, -650, 0, 650, 725, 800
      +                          };
  1194                           ;sumovore.c: 191: int duty_cycle;
  1195                           ;sumovore.c: 192: enum e_direction {reverse,forward} dir_modifier= forward;
  1196  001082  0E01               	movlw	1
  1197  001084  6E1B               	movwf	set_motor_speed@dir_modifier,c
  1198                           
  1199                           ;sumovore.c: 194: duty_cycle = motor_speeds[ motor_speed ] + speed_modifier;
  1200  001086  5015               	movf	set_motor_speed@motor_speed,w,c
  1201  001088  0D02               	mullw	2
  1202  00108A  0E01               	movlw	low set_motor_speed@motor_speeds
  1203  00108C  24F3               	addwf	prodl,w,c
  1204  00108E  6EF6               	movwf	tblptrl,c
  1205  001090  0E10               	movlw	high set_motor_speed@motor_speeds
  1206  001092  20F4               	addwfc	prodh,w,c
  1207  001094  6EF7               	movwf	tblptrh,c
  1208  001096                     	if	1	;There are 3 active tblptr bytes
  1209  001096  6AF8               	clrf	tblptru,c
  1210  001098  0E00               	movlw	low (__mediumconst shr (0+16))
  1211  00109A  22F8               	addwfc	tblptru,f,c
  1212  00109C                     	endif
  1213  00109C  0009               	tblrd		*+
  1214  00109E  CFF5 F018          	movff	tablat,??_set_motor_speed
  1215  0010A2  0009               	tblrd		*+
  1216  0010A4  CFF5 F019          	movff	tablat,??_set_motor_speed+1
  1217  0010A8  5016               	movf	set_motor_speed@speed_modifier,w,c
  1218  0010AA  2418               	addwf	??_set_motor_speed,w,c
  1219  0010AC  6E1C               	movwf	set_motor_speed@duty_cycle,c
  1220  0010AE  5017               	movf	set_motor_speed@speed_modifier+1,w,c
  1221  0010B0  2019               	addwfc	??_set_motor_speed+1,w,c
  1222  0010B2  6E1D               	movwf	set_motor_speed@duty_cycle+1,c
  1223                           
  1224                           ;sumovore.c: 195: if ( duty_cycle < 0 )
  1225  0010B4  501D               	movf	set_motor_speed@duty_cycle+1,w,c
  1226  0010B6  0A80               	xorlw	128
  1227  0010B8  6EF3               	movwf	prodl,c
  1228  0010BA  0E80               	movlw	128
  1229  0010BC  5CF3               	subwf	prodl,w,c
  1230  0010BE  0E00               	movlw	0
  1231  0010C0  B4D8               	btfsc	status,2,c
  1232  0010C2  5C1C               	subwf	set_motor_speed@duty_cycle,w,c
  1233  0010C4  B0D8               	btfsc	status,0,c
  1234  0010C6  D006               	goto	l1106
  1235                           
  1236                           ;sumovore.c: 196: {
  1237                           ;sumovore.c: 197: dir_modifier = reverse;
  1238  0010C8  0E00               	movlw	0
  1239  0010CA  6E1B               	movwf	set_motor_speed@dir_modifier,c
  1240                           
  1241                           ;sumovore.c: 198: duty_cycle = -1 * duty_cycle;
  1242  0010CC  6C1C               	negf	set_motor_speed@duty_cycle,c
  1243  0010CE  1E1D               	comf	set_motor_speed@duty_cycle+1,f,c
  1244  0010D0  B0D8               	btfsc	status,0,c
  1245  0010D2  2A1D               	incf	set_motor_speed@duty_cycle+1,f,c
  1246  0010D4                     l1106:
  1247                           
  1248                           ;sumovore.c: 199: }
  1249                           ;sumovore.c: 200: if ( duty_cycle > 800 ) duty_cycle = 800;
  1250  0010D4  501D               	movf	set_motor_speed@duty_cycle+1,w,c
  1251  0010D6  0A80               	xorlw	128
  1252  0010D8  0F7D               	addlw	-131
  1253  0010DA  0E21               	movlw	33
  1254  0010DC  B4D8               	btfsc	status,2,c
  1255  0010DE  5C1C               	subwf	set_motor_speed@duty_cycle,w,c
  1256  0010E0  A0D8               	btfss	status,0,c
  1257  0010E2  D004               	goto	l1110
  1258  0010E4  0E03               	movlw	3
  1259  0010E6  6E1D               	movwf	set_motor_speed@duty_cycle+1,c
  1260  0010E8  0E20               	movlw	32
  1261  0010EA  6E1C               	movwf	set_motor_speed@duty_cycle,c
  1262  0010EC                     l1110:
  1263                           
  1264                           ;sumovore.c: 202: if (the_motor == left)
  1265  0010EC  661A               	tstfsz	set_motor_speed@the_motor,c
  1266  0010EE  D016               	goto	l1120
  1267                           
  1268                           ;sumovore.c: 203: {
  1269                           ;sumovore.c: 204: SetDCPWM2((unsigned int) duty_cycle );
  1270  0010F0  C01C  F00F         	movff	set_motor_speed@duty_cycle,SetDCPWM2@dutycycle
  1271  0010F4  C01D  F010         	movff	set_motor_speed@duty_cycle+1,SetDCPWM2@dutycycle+1
  1272  0010F8  ECD4  F00A         	call	_SetDCPWM2	;wreg free
  1273                           
  1274                           ;sumovore.c: 205: if ( dir_modifier == reverse ) PORTCbits.RC0 = 0b0;
  1275  0010FC  661B               	tstfsz	set_motor_speed@dir_modifier,c
  1276  0010FE  D002               	goto	l229
  1277  001100  9082               	bcf	3970,0,c	;volatile
  1278  001102  D001               	goto	l1118
  1279  001104                     l229:
  1280                           
  1281                           ;sumovore.c: 206: else PORTCbits.RC0 = 0b1;
  1282  001104  8082               	bsf	3970,0,c	;volatile
  1283  001106                     l1118:
  1284                           
  1285                           ;sumovore.c: 207: PORTEbits.RE1 = !PORTCbits.RC0;
  1286  001106  B082               	btfsc	3970,0,c	;volatile
  1287  001108  D002               	goto	u80
  1288  00110A  0E01               	movlw	1
  1289  00110C  D001               	goto	u86
  1290  00110E                     u80:
  1291  00110E  0E00               	movlw	0
  1292  001110                     u86:
  1293  001110  6E18               	movwf	??_set_motor_speed& (0+255),c
  1294  001112  4618               	rlncf	??_set_motor_speed,f,c
  1295  001114  5084               	movf	3972,w,c	;volatile
  1296  001116  1818               	xorwf	??_set_motor_speed,w,c
  1297  001118  0BFD               	andlw	-3
  1298  00111A  D014               	goto	L1
  1299  00111C                     l1120:
  1300                           
  1301                           ;sumovore.c: 209: else
  1302                           ;sumovore.c: 210: {
  1303                           ;sumovore.c: 211: SetDCPWM1((unsigned int) duty_cycle );
  1304  00111C  C01C  F00F         	movff	set_motor_speed@duty_cycle,SetDCPWM1@dutycycle
  1305  001120  C01D  F010         	movff	set_motor_speed@duty_cycle+1,SetDCPWM1@dutycycle+1
  1306  001124  ECF1  F00A         	call	_SetDCPWM1	;wreg free
  1307                           
  1308                           ;sumovore.c: 212: if ( dir_modifier == reverse ) PORTCbits.RC5 = 0b0;
  1309  001128  661B               	tstfsz	set_motor_speed@dir_modifier,c
  1310  00112A  D002               	goto	l232
  1311  00112C  9A82               	bcf	3970,5,c	;volatile
  1312  00112E  D001               	goto	l1126
  1313  001130                     l232:
  1314                           
  1315                           ;sumovore.c: 213: else PORTCbits.RC5 = 0b1;
  1316  001130  8A82               	bsf	3970,5,c	;volatile
  1317  001132                     l1126:
  1318                           
  1319                           ;sumovore.c: 214: PORTEbits.RE0 = !PORTCbits.RC5;
  1320  001132  BA82               	btfsc	3970,5,c	;volatile
  1321  001134  D002               	goto	u100
  1322  001136  0E01               	movlw	1
  1323  001138  D001               	goto	u106
  1324  00113A                     u100:
  1325  00113A  0E00               	movlw	0
  1326  00113C                     u106:
  1327  00113C  6E18               	movwf	??_set_motor_speed& (0+255),c
  1328  00113E  5084               	movf	3972,w,c	;volatile
  1329  001140  1818               	xorwf	??_set_motor_speed,w,c
  1330  001142  0BFE               	andlw	-2
  1331  001144                     L1:
  1332  001144  1818               	xorwf	??_set_motor_speed,w,c
  1333  001146  6E84               	movwf	3972,c	;volatile
  1334  001148  0012               	return	
  1335  00114A                     __end_of_set_motor_speed:
  1336                           	opt stack 0
  1337                           tblptru	equ	0xFF8
  1338                           tblptrh	equ	0xFF7
  1339                           tblptrl	equ	0xFF6
  1340                           tablat	equ	0xFF5
  1341                           prodh	equ	0xFF4
  1342                           prodl	equ	0xFF3
  1343                           status	equ	0xFD8
  1344                           
  1345 ;; *************** function _lvd_flag_set *****************
  1346 ;; Defined at:
  1347 ;;		line 47 in file "../interrupts.c"
  1348 ;; Parameters:    Size  Location     Type
  1349 ;;		None
  1350 ;; Auto vars:     Size  Location     Type
  1351 ;;		None
  1352 ;; Return value:  Size  Location     Type
  1353 ;;                  1    wreg      unsigned char 
  1354 ;; Registers used:
  1355 ;;		wreg, status,2
  1356 ;; Tracked objects:
  1357 ;;		On entry : 0/0
  1358 ;;		On exit  : 0/0
  1359 ;;		Unchanged: 0/0
  1360 ;; Data sizes:     COMRAM   BANK0   BANK1   BANK2   BANK3   BANK4   BANK5   BANK6   BANK7   BANK8   BANK9  BANK10  BANK1
      +1  BANK12  BANK13  BANK14  BANK15
  1361 ;;      Params:         0       0       0       0       0       0       0       0       0       0       0       0       
      +0       0       0       0       0
  1362 ;;      Locals:         0       0       0       0       0       0       0       0       0       0       0       0       
      +0       0       0       0       0
  1363 ;;      Temps:          0       0       0       0       0       0       0       0       0       0       0       0       
      +0       0       0       0       0
  1364 ;;      Totals:         0       0       0       0       0       0       0       0       0       0       0       0       
      +0       0       0       0       0
  1365 ;;Total ram usage:        0 bytes
  1366 ;; Hardware stack levels used:    1
  1367 ;; Hardware stack levels required when called:    1
  1368 ;; This function calls:
  1369 ;;		Nothing
  1370 ;; This function is called by:
  1371 ;;		_main
  1372 ;; This function uses a non-reentrant model
  1373 ;;
  1374                           
  1375                           	psect	text11
  1376  0019C2                     __ptext11:
  1377                           	opt stack 0
  1378  0019C2                     _lvd_flag_set:
  1379                           	opt stack 29
  1380                           
  1381                           ;interrupts.c: 49: return lvd_flag;
  1382                           
  1383                           ;incstack = 0
  1384  0019C2  5021               	movf	_lvd_flag,w,c
  1385  0019C4  0012               	return	
  1386  0019C6                     __end_of_lvd_flag_set:
  1387                           	opt stack 0
  1388                           tblptru	equ	0xFF8
  1389                           tblptrh	equ	0xFF7
  1390                           tblptrl	equ	0xFF6
  1391                           tablat	equ	0xFF5
  1392                           prodh	equ	0xFF4
  1393                           prodl	equ	0xFF3
  1394                           status	equ	0xFD8
  1395                           
  1396 ;; *************** function _initialization *****************
  1397 ;; Defined at:
  1398 ;;		line 65 in file "../sumovore.c"
  1399 ;; Parameters:    Size  Location     Type
  1400 ;;		None
  1401 ;; Auto vars:     Size  Location     Type
  1402 ;;		None
  1403 ;; Return value:  Size  Location     Type
  1404 ;;		None               void
  1405 ;; Registers used:
  1406 ;;		wreg, status,2, status,0, tblptrl, tblptrh, tblptru, cstack
  1407 ;; Tracked objects:
  1408 ;;		On entry : 0/0
  1409 ;;		On exit  : 0/0
  1410 ;;		Unchanged: 0/0
  1411 ;; Data sizes:     COMRAM   BANK0   BANK1   BANK2   BANK3   BANK4   BANK5   BANK6   BANK7   BANK8   BANK9  BANK10  BANK1
      +1  BANK12  BANK13  BANK14  BANK15
  1412 ;;      Params:         0       0       0       0       0       0       0       0       0       0       0       0       
      +0       0       0       0       0
  1413 ;;      Locals:         0       0       0       0       0       0       0       0       0       0       0       0       
      +0       0       0       0       0
  1414 ;;      Temps:          0       0       0       0       0       0       0       0       0       0       0       0       
      +0       0       0       0       0
  1415 ;;      Totals:         0       0       0       0       0       0       0       0       0       0       0       0       
      +0       0       0       0       0
  1416 ;;Total ram usage:        0 bytes
  1417 ;; Hardware stack levels used:    1
  1418 ;; Hardware stack levels required when called:    5
  1419 ;; This function calls:
  1420 ;;		_OpenADC
  1421 ;;		_OpenPWM1
  1422 ;;		_OpenPWM2
  1423 ;;		_OpenTimer2
  1424 ;;		_OpenUSART
  1425 ;;		_SetDCPWM1
  1426 ;;		_SetDCPWM2
  1427 ;;		_openLVD
  1428 ;;		_openPORTA
  1429 ;;		_openPORTB
  1430 ;;		_openPORTCforPWM
  1431 ;;		_openPORTCforUSART
  1432 ;;		_openPORTD
  1433 ;;		_openPORTE
  1434 ;;		_reset_codes
  1435 ;;		_set_osc_32MHz
  1436 ;; This function is called by:
  1437 ;;		_main
  1438 ;; This function uses a non-reentrant model
  1439 ;;
  1440                           
  1441                           	psect	text12
  1442  0012B8                     __ptext12:
  1443                           	opt stack 0
  1444  0012B8                     _initialization:
  1445                           	opt stack 25
  1446                           
  1447                           ;sumovore.c: 67: SeeLine.B = 0;
  1448                           
  1449                           ;incstack = 0
  1450  0012B8  9020               	bcf	_SeeLine,0,c
  1451  0012BA  9220               	bcf	_SeeLine,1,c
  1452  0012BC  9420               	bcf	_SeeLine,2,c
  1453  0012BE  9620               	bcf	_SeeLine,3,c
  1454  0012C0  9820               	bcf	_SeeLine,4,c
  1455                           
  1456                           ;sumovore.c: 68: RCONbits.IPEN = 1;
  1457  0012C2  8ED0               	bsf	4048,7,c	;volatile
  1458                           
  1459                           ;sumovore.c: 69: INTCONbits.GIEH = 0;
  1460  0012C4  9EF2               	bcf	intcon,7,c	;volatile
  1461                           
  1462                           ;sumovore.c: 70: INTCONbits.GIEL = 0;
  1463  0012C6  9CF2               	bcf	intcon,6,c	;volatile
  1464                           
  1465                           ;sumovore.c: 72: set_osc_32MHz();
  1466  0012C8  EC8C  F00B         	call	_set_osc_32MHz	;wreg free
  1467                           
  1468                           ;sumovore.c: 73: openPORTCforUSART();
  1469  0012CC  ECD5  F00C         	call	_openPORTCforUSART	;wreg free
  1470                           
  1471                           ;sumovore.c: 75: OpenUSART( 0b01111111 & 0b10111111 & 0b11111110 & 0b11111101 & 0b111111
      +                          11 & 0b11111111,
  1472                           ;sumovore.c: 76: 16 );
  1473  0012D0  0E00               	movlw	0
  1474  0012D2  6E10               	movwf	OpenUSART@spbrg+1,c
  1475  0012D4  0E10               	movlw	16
  1476  0012D6  6E0F               	movwf	OpenUSART@spbrg,c
  1477  0012D8  0E3C               	movlw	60
  1478  0012DA  EC22  F00A         	call	_OpenUSART
  1479                           
  1480                           ;sumovore.c: 82: openPORTD();
  1481  0012DE  ECDE  F00C         	call	_openPORTD	;wreg free
  1482                           
  1483                           ;sumovore.c: 83: PORTD = 0;
  1484  0012E2  0E00               	movlw	0
  1485  0012E4  6E83               	movwf	3971,c	;volatile
  1486                           
  1487                           ;sumovore.c: 85: reset_codes();
  1488  0012E6  ECB4  F00A         	call	_reset_codes	;wreg free
  1489                           
  1490                           ;sumovore.c: 87: openPORTCforPWM();
  1491  0012EA  ECBD  F00C         	call	_openPORTCforPWM	;wreg free
  1492                           
  1493                           ;sumovore.c: 89: openPORTA();
  1494  0012EE  ECDB  F00C         	call	_openPORTA	;wreg free
  1495                           
  1496                           ;sumovore.c: 90: openPORTB();
  1497  0012F2  ECD8  F00C         	call	_openPORTB	;wreg free
  1498                           
  1499                           ;sumovore.c: 91: openPORTE();
  1500  0012F6  ECD2  F00C         	call	_openPORTE	;wreg free
  1501                           
  1502                           ;sumovore.c: 94: openLVD();
  1503  0012FA  EC7B  F00C         	call	_openLVD	;wreg free
  1504                           
  1505                           ;sumovore.c: 98: OpenADC(0b10101111 & 0b11111111 & 0b11110111 , 0b10001111 & 0b01111111 
      +                          & 0b11111110 & 0b11111101, 0B1010);
  1506  0012FE  0E0C               	movlw	12
  1507  001300  6E0F               	movwf	OpenADC@config2,c
  1508  001302  0E0A               	movlw	10
  1509  001304  6E10               	movwf	OpenADC@portconfig,c
  1510  001306  0EA7               	movlw	167
  1511  001308  EC56  F00A         	call	_OpenADC
  1512                           
  1513                           ;sumovore.c: 101: PORTCbits.RC5 = 0b0;
  1514  00130C  9A82               	bcf	3970,5,c	;volatile
  1515                           
  1516                           ;sumovore.c: 102: PORTEbits.RE0 = 0b0;
  1517  00130E  9084               	bcf	3972,0,c	;volatile
  1518                           
  1519                           ;sumovore.c: 103: PORTCbits.RC0 = 0b0;
  1520  001310  9082               	bcf	3970,0,c	;volatile
  1521                           
  1522                           ;sumovore.c: 104: PORTEbits.RE1 = 0b0;
  1523  001312  9284               	bcf	3972,1,c	;volatile
  1524                           
  1525                           ;sumovore.c: 109: OpenTimer2(0b01111111 & 0b11111110 & 0b10000111);
  1526  001314  0E06               	movlw	6
  1527  001316  EC6D  F00C         	call	_OpenTimer2
  1528                           
  1529                           ;sumovore.c: 110: OpenPWM1(199);
  1530  00131A  0EC7               	movlw	199
  1531  00131C  ECA6  F00C         	call	_OpenPWM1
  1532                           
  1533                           ;sumovore.c: 112: OpenPWM2(199);
  1534  001320  0EC7               	movlw	199
  1535  001322  EC0E  F00B         	call	_OpenPWM2
  1536                           
  1537                           ;sumovore.c: 113: SetDCPWM1(0);
  1538  001326  0E00               	movlw	0
  1539  001328  6E10               	movwf	SetDCPWM1@dutycycle+1,c
  1540  00132A  0E00               	movlw	0
  1541  00132C  6E0F               	movwf	SetDCPWM1@dutycycle,c
  1542  00132E  ECF1  F00A         	call	_SetDCPWM1	;wreg free
  1543                           
  1544                           ;sumovore.c: 116: SetDCPWM2(0);
  1545  001332  0E00               	movlw	0
  1546  001334  6E10               	movwf	SetDCPWM2@dutycycle+1,c
  1547  001336  0E00               	movlw	0
  1548  001338  6E0F               	movwf	SetDCPWM2@dutycycle,c
  1549  00133A  ECD4  F00A         	call	_SetDCPWM2	;wreg free
  1550                           
  1551                           ;sumovore.c: 117: threshold = 512u;
  1552  00133E  0E02               	movlw	2
  1553  001340  6E1F               	movwf	_threshold+1,c
  1554  001342  0E00               	movlw	0
  1555  001344  6E1E               	movwf	_threshold,c
  1556  001346  0012               	return	
  1557  001348                     __end_of_initialization:
  1558                           	opt stack 0
  1559                           tblptru	equ	0xFF8
  1560                           tblptrh	equ	0xFF7
  1561                           tblptrl	equ	0xFF6
  1562                           tablat	equ	0xFF5
  1563                           prodh	equ	0xFF4
  1564                           prodl	equ	0xFF3
  1565                           intcon	equ	0xFF2
  1566                           status	equ	0xFD8
  1567                           
  1568 ;; *************** function _set_osc_32MHz *****************
  1569 ;; Defined at:
  1570 ;;		line 18 in file "../../Common/osc.c"
  1571 ;; Parameters:    Size  Location     Type
  1572 ;;		None
  1573 ;; Auto vars:     Size  Location     Type
  1574 ;;  i               2   14[COMRAM] int 
  1575 ;; Return value:  Size  Location     Type
  1576 ;;		None               void
  1577 ;; Registers used:
  1578 ;;		wreg, status,2, status,0
  1579 ;; Tracked objects:
  1580 ;;		On entry : 0/0
  1581 ;;		On exit  : 0/0
  1582 ;;		Unchanged: 0/0
  1583 ;; Data sizes:     COMRAM   BANK0   BANK1   BANK2   BANK3   BANK4   BANK5   BANK6   BANK7   BANK8   BANK9  BANK10  BANK1
      +1  BANK12  BANK13  BANK14  BANK15
  1584 ;;      Params:         0       0       0       0       0       0       0       0       0       0       0       0       
      +0       0       0       0       0
  1585 ;;      Locals:         2       0       0       0       0       0       0       0       0       0       0       0       
      +0       0       0       0       0
  1586 ;;      Temps:          0       0       0       0       0       0       0       0       0       0       0       0       
      +0       0       0       0       0
  1587 ;;      Totals:         2       0       0       0       0       0       0       0       0       0       0       0       
      +0       0       0       0       0
  1588 ;;Total ram usage:        2 bytes
  1589 ;; Hardware stack levels used:    1
  1590 ;; Hardware stack levels required when called:    1
  1591 ;; This function calls:
  1592 ;;		Nothing
  1593 ;; This function is called by:
  1594 ;;		_initialization
  1595 ;; This function uses a non-reentrant model
  1596 ;;
  1597                           
  1598                           	psect	text13
  1599  001718                     __ptext13:
  1600                           	opt stack 0
  1601  001718                     _set_osc_32MHz:
  1602                           	opt stack 28
  1603                           
  1604                           ;osc.c: 20: int i;
  1605                           ;osc.c: 22: OSCCONbits.IRCF2 = 1;
  1606                           
  1607                           ;incstack = 0
  1608  001718  8CD3               	bsf	4051,6,c	;volatile
  1609                           
  1610                           ;osc.c: 23: OSCCONbits.IRCF1 = 1;
  1611  00171A  8AD3               	bsf	4051,5,c	;volatile
  1612                           
  1613                           ;osc.c: 24: OSCCONbits.IRCF0 = 1;
  1614  00171C  88D3               	bsf	4051,4,c	;volatile
  1615                           
  1616                           ;osc.c: 26: OSCTUNEbits.PLLEN = 1;
  1617  00171E  8C9B               	bsf	3995,6,c	;volatile
  1618                           
  1619                           ;osc.c: 28: for(i=0;i<500;i++);
  1620  001720  0E00               	movlw	0
  1621  001722  6E10               	movwf	set_osc_32MHz@i+1,c
  1622  001724  0E00               	movlw	0
  1623  001726  6E0F               	movwf	set_osc_32MHz@i,c
  1624  001728  5010               	movf	set_osc_32MHz@i+1,w,c
  1625  00172A  0A80               	xorlw	128
  1626  00172C  0F7F               	addlw	-129
  1627  00172E  0EF4               	movlw	244
  1628  001730  B4D8               	btfsc	status,2,c
  1629  001732  5C0F               	subwf	set_osc_32MHz@i,w,c
  1630  001734  B0D8               	btfsc	status,0,c
  1631  001736  D003               	goto	l305
  1632  001738  4A0F               	infsnz	set_osc_32MHz@i,f,c
  1633  00173A  2A10               	incf	set_osc_32MHz@i+1,f,c
  1634  00173C  D7F5               	goto	L2
  1635  00173E                     l305:
  1636  00173E  0012               	return	
  1637  001740                     __end_of_set_osc_32MHz:
  1638                           	opt stack 0
  1639                           tblptru	equ	0xFF8
  1640                           tblptrh	equ	0xFF7
  1641                           tblptrl	equ	0xFF6
  1642                           tablat	equ	0xFF5
  1643                           prodh	equ	0xFF4
  1644                           prodl	equ	0xFF3
  1645                           intcon	equ	0xFF2
  1646                           status	equ	0xFD8
  1647                           
  1648 ;; *************** function _reset_codes *****************
  1649 ;; Defined at:
  1650 ;;		line 281 in file "../sumovore.c"
  1651 ;; Parameters:    Size  Location     Type
  1652 ;;		None
  1653 ;; Auto vars:     Size  Location     Type
  1654 ;;		None
  1655 ;; Return value:  Size  Location     Type
  1656 ;;		None               void
  1657 ;; Registers used:
  1658 ;;		wreg, status,2, status,0, tblptrl, tblptrh, tblptru, cstack
  1659 ;; Tracked objects:
  1660 ;;		On entry : 0/0
  1661 ;;		On exit  : 0/0
  1662 ;;		Unchanged: 0/0
  1663 ;; Data sizes:     COMRAM   BANK0   BANK1   BANK2   BANK3   BANK4   BANK5   BANK6   BANK7   BANK8   BANK9  BANK10  BANK1
      +1  BANK12  BANK13  BANK14  BANK15
  1664 ;;      Params:         0       0       0       0       0       0       0       0       0       0       0       0       
      +0       0       0       0       0
  1665 ;;      Locals:         0       0       0       0       0       0       0       0       0       0       0       0       
      +0       0       0       0       0
  1666 ;;      Temps:          0       0       0       0       0       0       0       0       0       0       0       0       
      +0       0       0       0       0
  1667 ;;      Totals:         0       0       0       0       0       0       0       0       0       0       0       0       
      +0       0       0       0       0
  1668 ;;Total ram usage:        0 bytes
  1669 ;; Hardware stack levels used:    1
  1670 ;; Hardware stack levels required when called:    4
  1671 ;; This function calls:
  1672 ;;		_BORtask
  1673 ;;		_PORtask
  1674 ;;		_RESETtask
  1675 ;;		_STKFULtask
  1676 ;;		_WDTtask
  1677 ;;		_isBOR
  1678 ;;		_isPOR
  1679 ;;		_isWDTTO
  1680 ;; This function is called by:
  1681 ;;		_initialization
  1682 ;; This function uses a non-reentrant model
  1683 ;;
  1684                           
  1685                           	psect	text14
  1686  001568                     __ptext14:
  1687                           	opt stack 0
  1688  001568                     _reset_codes:
  1689                           	opt stack 25
  1690                           
  1691                           ;sumovore.c: 283: if( isPOR() ) PORtask();
  1692                           
  1693                           ;incstack = 0
  1694  001568  EC9C  F00C         	call	_isPOR	;wreg free
  1695  00156C  0900               	iorlw	0
  1696  00156E  B4D8               	btfsc	status,2,c
  1697  001570  D003               	goto	l1424
  1698  001572  EC07  F009         	call	_PORtask	;wreg free
  1699  001576  D017               	goto	l260
  1700  001578                     l1424:
  1701                           
  1702                           ;sumovore.c: 286: else if (isBOR() ) BORtask();
  1703  001578  ECB6  F00C         	call	_isBOR	;wreg free
  1704  00157C  0900               	iorlw	0
  1705  00157E  B4D8               	btfsc	status,2,c
  1706  001580  D003               	goto	l1428
  1707  001582  EC22  F00C         	call	_BORtask	;wreg free
  1708  001586  D00F               	goto	l260
  1709  001588                     l1428:
  1710                           
  1711                           ;sumovore.c: 288: else if(isWDTTO() ) WDTtask();
  1712  001588  EC92  F00C         	call	_isWDTTO	;wreg free
  1713  00158C  0900               	iorlw	0
  1714  00158E  B4D8               	btfsc	status,2,c
  1715  001590  D003               	goto	l256
  1716  001592  EC51  F00C         	call	_WDTtask	;wreg free
  1717  001596  D007               	goto	l260
  1718  001598                     l256:
  1719                           
  1720                           ;sumovore.c: 292: else if(STKPTRbits.STKFUL) STKFULtask();
  1721  001598  AEFC               	btfss	stkptr,7,c	;volatile
  1722  00159A  D003               	goto	l1434
  1723  00159C  EC42  F00C         	call	_STKFULtask	;wreg free
  1724  0015A0  D002               	goto	l260
  1725  0015A2                     l1434:
  1726                           
  1727                           ;sumovore.c: 296: else RESETtask();
  1728  0015A2  EC5F  F00C         	call	_RESETtask	;wreg free
  1729  0015A6                     l260:
  1730  0015A6  0012               	return	
  1731  0015A8                     __end_of_reset_codes:
  1732                           	opt stack 0
  1733                           stkptr	equ	0xFFC
  1734                           tblptru	equ	0xFF8
  1735                           tblptrh	equ	0xFF7
  1736                           tblptrl	equ	0xFF6
  1737                           tablat	equ	0xFF5
  1738                           prodh	equ	0xFF4
  1739                           prodl	equ	0xFF3
  1740                           intcon	equ	0xFF2
  1741                           status	equ	0xFD8
  1742                           
  1743 ;; *************** function _isWDTTO *****************
  1744 ;; Defined at:
  1745 ;;		line 15 in file "C:\Program Files (x86)\Microchip\xc8\v1.33\sources\pic18\plib\reset\iswdtto.c"
  1746 ;; Parameters:    Size  Location     Type
  1747 ;;		None
  1748 ;; Auto vars:     Size  Location     Type
  1749 ;;		None
  1750 ;; Return value:  Size  Location     Type
  1751 ;;                  1    wreg      unsigned char 
  1752 ;; Registers used:
  1753 ;;		wreg
  1754 ;; Tracked objects:
  1755 ;;		On entry : 0/0
  1756 ;;		On exit  : 0/0
  1757 ;;		Unchanged: 0/0
  1758 ;; Data sizes:     COMRAM   BANK0   BANK1   BANK2   BANK3   BANK4   BANK5   BANK6   BANK7   BANK8   BANK9  BANK10  BANK1
      +1  BANK12  BANK13  BANK14  BANK15
  1759 ;;      Params:         0       0       0       0       0       0       0       0       0       0       0       0       
      +0       0       0       0       0
  1760 ;;      Locals:         0       0       0       0       0       0       0       0       0       0       0       0       
      +0       0       0       0       0
  1761 ;;      Temps:          0       0       0       0       0       0       0       0       0       0       0       0       
      +0       0       0       0       0
  1762 ;;      Totals:         0       0       0       0       0       0       0       0       0       0       0       0       
      +0       0       0       0       0
  1763 ;;Total ram usage:        0 bytes
  1764 ;; Hardware stack levels used:    1
  1765 ;; Hardware stack levels required when called:    1
  1766 ;; This function calls:
  1767 ;;		Nothing
  1768 ;; This function is called by:
  1769 ;;		_reset_codes
  1770 ;; This function uses a non-reentrant model
  1771 ;;
  1772                           
  1773                           	psect	text15
  1774  001924                     __ptext15:
  1775                           	opt stack 0
  1776  001924                     _isWDTTO:
  1777                           	opt stack 27
  1778                           
  1779                           ;incstack = 0
  1780  001924  B2D0               	btfsc	4048,1,c	;volatile
  1781  001926  A4D0               	btfss	4048,2,c	;volatile
  1782  001928  D005               	goto	l1284
  1783  00192A  B0D0               	btfsc	4048,0,c	;volatile
  1784  00192C  B6D0               	btfsc	4048,3,c	;volatile
  1785  00192E  D002               	goto	l1284
  1786  001930  0E01               	movlw	1
  1787  001932  D001               	goto	l482
  1788  001934                     l1284:
  1789  001934  0E00               	movlw	0
  1790  001936                     l482:
  1791  001936  0012               	return	
  1792  001938                     __end_of_isWDTTO:
  1793                           	opt stack 0
  1794                           stkptr	equ	0xFFC
  1795                           tblptru	equ	0xFF8
  1796                           tblptrh	equ	0xFF7
  1797                           tblptrl	equ	0xFF6
  1798                           tablat	equ	0xFF5
  1799                           prodh	equ	0xFF4
  1800                           prodl	equ	0xFF3
  1801                           intcon	equ	0xFF2
  1802                           status	equ	0xFD8
  1803                           
  1804 ;; *************** function _isPOR *****************
  1805 ;; Defined at:
  1806 ;;		line 10 in file "C:\Program Files (x86)\Microchip\xc8\v1.33\sources\pic18\plib\reset\ispor.c"
  1807 ;; Parameters:    Size  Location     Type
  1808 ;;		None
  1809 ;; Auto vars:     Size  Location     Type
  1810 ;;		None
  1811 ;; Return value:  Size  Location     Type
  1812 ;;                  1    wreg      unsigned char 
  1813 ;; Registers used:
  1814 ;;		wreg
  1815 ;; Tracked objects:
  1816 ;;		On entry : 0/0
  1817 ;;		On exit  : 0/0
  1818 ;;		Unchanged: 0/0
  1819 ;; Data sizes:     COMRAM   BANK0   BANK1   BANK2   BANK3   BANK4   BANK5   BANK6   BANK7   BANK8   BANK9  BANK10  BANK1
      +1  BANK12  BANK13  BANK14  BANK15
  1820 ;;      Params:         0       0       0       0       0       0       0       0       0       0       0       0       
      +0       0       0       0       0
  1821 ;;      Locals:         0       0       0       0       0       0       0       0       0       0       0       0       
      +0       0       0       0       0
  1822 ;;      Temps:          0       0       0       0       0       0       0       0       0       0       0       0       
      +0       0       0       0       0
  1823 ;;      Totals:         0       0       0       0       0       0       0       0       0       0       0       0       
      +0       0       0       0       0
  1824 ;;Total ram usage:        0 bytes
  1825 ;; Hardware stack levels used:    1
  1826 ;; Hardware stack levels required when called:    1
  1827 ;; This function calls:
  1828 ;;		Nothing
  1829 ;; This function is called by:
  1830 ;;		_reset_codes
  1831 ;; This function uses a non-reentrant model
  1832 ;;
  1833                           
  1834                           	psect	text16
  1835  001938                     __ptext16:
  1836                           	opt stack 0
  1837  001938                     _isPOR:
  1838                           	opt stack 27
  1839                           
  1840                           ;incstack = 0
  1841  001938  A2D0               	btfss	4048,1,c	;volatile
  1842  00193A  A4D0               	btfss	4048,2,c	;volatile
  1843  00193C  D005               	goto	l1192
  1844  00193E  A0D0               	btfss	4048,0,c	;volatile
  1845  001940  A6D0               	btfss	4048,3,c	;volatile
  1846  001942  D002               	goto	l1192
  1847  001944  0E01               	movlw	1
  1848  001946  D001               	goto	l473
  1849  001948                     l1192:
  1850  001948  0E00               	movlw	0
  1851  00194A                     l473:
  1852  00194A  0012               	return	
  1853  00194C                     __end_of_isPOR:
  1854                           	opt stack 0
  1855                           stkptr	equ	0xFFC
  1856                           tblptru	equ	0xFF8
  1857                           tblptrh	equ	0xFF7
  1858                           tblptrl	equ	0xFF6
  1859                           tablat	equ	0xFF5
  1860                           prodh	equ	0xFF4
  1861                           prodl	equ	0xFF3
  1862                           intcon	equ	0xFF2
  1863                           status	equ	0xFD8
  1864                           
  1865 ;; *************** function _isBOR *****************
  1866 ;; Defined at:
  1867 ;;		line 12 in file "C:\Program Files (x86)\Microchip\xc8\v1.33\sources\pic18\plib\reset\isbor.c"
  1868 ;; Parameters:    Size  Location     Type
  1869 ;;		None
  1870 ;; Auto vars:     Size  Location     Type
  1871 ;;		None
  1872 ;; Return value:  Size  Location     Type
  1873 ;;                  1    wreg      unsigned char 
  1874 ;; Registers used:
  1875 ;;		wreg
  1876 ;; Tracked objects:
  1877 ;;		On entry : 0/0
  1878 ;;		On exit  : 0/0
  1879 ;;		Unchanged: 0/0
  1880 ;; Data sizes:     COMRAM   BANK0   BANK1   BANK2   BANK3   BANK4   BANK5   BANK6   BANK7   BANK8   BANK9  BANK10  BANK1
      +1  BANK12  BANK13  BANK14  BANK15
  1881 ;;      Params:         0       0       0       0       0       0       0       0       0       0       0       0       
      +0       0       0       0       0
  1882 ;;      Locals:         0       0       0       0       0       0       0       0       0       0       0       0       
      +0       0       0       0       0
  1883 ;;      Temps:          0       0       0       0       0       0       0       0       0       0       0       0       
      +0       0       0       0       0
  1884 ;;      Totals:         0       0       0       0       0       0       0       0       0       0       0       0       
      +0       0       0       0       0
  1885 ;;Total ram usage:        0 bytes
  1886 ;; Hardware stack levels used:    1
  1887 ;; Hardware stack levels required when called:    1
  1888 ;; This function calls:
  1889 ;;		Nothing
  1890 ;; This function is called by:
  1891 ;;		_reset_codes
  1892 ;; This function uses a non-reentrant model
  1893 ;;
  1894                           
  1895                           	psect	text17
  1896  00196C                     __ptext17:
  1897                           	opt stack 0
  1898  00196C                     _isBOR:
  1899                           	opt stack 27
  1900                           
  1901                           ;incstack = 0
  1902  00196C  A0D0               	btfss	4048,0,c	;volatile
  1903  00196E  A2D0               	btfss	4048,1,c	;volatile
  1904  001970  D002               	goto	l1240
  1905  001972  0E01               	movlw	1
  1906  001974  D001               	goto	l464
  1907  001976                     l1240:
  1908  001976  0E00               	movlw	0
  1909  001978                     l464:
  1910  001978  0012               	return	
  1911  00197A                     __end_of_isBOR:
  1912                           	opt stack 0
  1913                           stkptr	equ	0xFFC
  1914                           tblptru	equ	0xFF8
  1915                           tblptrh	equ	0xFF7
  1916                           tblptrl	equ	0xFF6
  1917                           tablat	equ	0xFF5
  1918                           prodh	equ	0xFF4
  1919                           prodl	equ	0xFF3
  1920                           intcon	equ	0xFF2
  1921                           status	equ	0xFD8
  1922                           
  1923 ;; *************** function _WDTtask *****************
  1924 ;; Defined at:
  1925 ;;		line 369 in file "../sumovore.c"
  1926 ;; Parameters:    Size  Location     Type
  1927 ;;		None
  1928 ;; Auto vars:     Size  Location     Type
  1929 ;;		None
  1930 ;; Return value:  Size  Location     Type
  1931 ;;		None               void
  1932 ;; Registers used:
  1933 ;;		wreg, status,2, status,0, tblptrl, tblptrh, tblptru, cstack
  1934 ;; Tracked objects:
  1935 ;;		On entry : 0/0
  1936 ;;		On exit  : 0/0
  1937 ;;		Unchanged: 0/0
  1938 ;; Data sizes:     COMRAM   BANK0   BANK1   BANK2   BANK3   BANK4   BANK5   BANK6   BANK7   BANK8   BANK9  BANK10  BANK1
      +1  BANK12  BANK13  BANK14  BANK15
  1939 ;;      Params:         0       0       0       0       0       0       0       0       0       0       0       0       
      +0       0       0       0       0
  1940 ;;      Locals:         0       0       0       0       0       0       0       0       0       0       0       0       
      +0       0       0       0       0
  1941 ;;      Temps:          0       0       0       0       0       0       0       0       0       0       0       0       
      +0       0       0       0       0
  1942 ;;      Totals:         0       0       0       0       0       0       0       0       0       0       0       0       
      +0       0       0       0       0
  1943 ;;Total ram usage:        0 bytes
  1944 ;; Hardware stack levels used:    1
  1945 ;; Hardware stack levels required when called:    3
  1946 ;; This function calls:
  1947 ;;		_gtrap
  1948 ;;		_printf
  1949 ;; This function is called by:
  1950 ;;		_reset_codes
  1951 ;; This function uses a non-reentrant model
  1952 ;;
  1953                           
  1954                           	psect	text18
  1955  0018A2                     __ptext18:
  1956                           	opt stack 0
  1957  0018A2                     _WDTtask:
  1958                           	opt stack 25
  1959                           
  1960                           ;sumovore.c: 371: printf("<WDT TO>");
  1961                           
  1962                           ;incstack = 0
  1963  0018A2  0E10               	movlw	high STR_4
  1964  0018A4  6E10               	movwf	printf@f+1,c
  1965  0018A6  0E62               	movlw	low STR_4
  1966  0018A8  6E0F               	movwf	printf@f,c
  1967  0018AA  EC77  F00B         	call	_printf	;wreg free
  1968                           
  1969                           ;sumovore.c: 372: PORTDbits.RD0=!1;
  1970  0018AE  9083               	bcf	3971,0,c	;volatile
  1971                           
  1972                           ;sumovore.c: 373: PORTDbits.RD1=!0;
  1973  0018B0  8283               	bsf	3971,1,c	;volatile
  1974                           
  1975                           ;sumovore.c: 374: PORTDbits.RD2=!1;
  1976  0018B2  9483               	bcf	3971,2,c	;volatile
  1977                           
  1978                           ;sumovore.c: 375: PORTDbits.RD3=!0;
  1979  0018B4  8683               	bsf	3971,3,c	;volatile
  1980                           
  1981                           ;sumovore.c: 376: PORTDbits.RD4=!0;
  1982  0018B6  8883               	bsf	3971,4,c	;volatile
  1983                           
  1984                           ;sumovore.c: 377: gtrap();
  1985  0018B8  EC85  F00A         	call	_gtrap	;wreg free
  1986  0018BC  0012               	return	
  1987  0018BE                     __end_of_WDTtask:
  1988                           	opt stack 0
  1989                           stkptr	equ	0xFFC
  1990                           tblptru	equ	0xFF8
  1991                           tblptrh	equ	0xFF7
  1992                           tblptrl	equ	0xFF6
  1993                           tablat	equ	0xFF5
  1994                           prodh	equ	0xFF4
  1995                           prodl	equ	0xFF3
  1996                           intcon	equ	0xFF2
  1997                           status	equ	0xFD8
  1998                           
  1999 ;; *************** function _STKFULtask *****************
  2000 ;; Defined at:
  2001 ;;		line 388 in file "../sumovore.c"
  2002 ;; Parameters:    Size  Location     Type
  2003 ;;		None
  2004 ;; Auto vars:     Size  Location     Type
  2005 ;;		None
  2006 ;; Return value:  Size  Location     Type
  2007 ;;		None               void
  2008 ;; Registers used:
  2009 ;;		wreg, status,2, status,0, tblptrl, tblptrh, tblptru, cstack
  2010 ;; Tracked objects:
  2011 ;;		On entry : 0/0
  2012 ;;		On exit  : 0/0
  2013 ;;		Unchanged: 0/0
  2014 ;; Data sizes:     COMRAM   BANK0   BANK1   BANK2   BANK3   BANK4   BANK5   BANK6   BANK7   BANK8   BANK9  BANK10  BANK1
      +1  BANK12  BANK13  BANK14  BANK15
  2015 ;;      Params:         0       0       0       0       0       0       0       0       0       0       0       0       
      +0       0       0       0       0
  2016 ;;      Locals:         0       0       0       0       0       0       0       0       0       0       0       0       
      +0       0       0       0       0
  2017 ;;      Temps:          0       0       0       0       0       0       0       0       0       0       0       0       
      +0       0       0       0       0
  2018 ;;      Totals:         0       0       0       0       0       0       0       0       0       0       0       0       
      +0       0       0       0       0
  2019 ;;Total ram usage:        0 bytes
  2020 ;; Hardware stack levels used:    1
  2021 ;; Hardware stack levels required when called:    3
  2022 ;; This function calls:
  2023 ;;		_gtrap
  2024 ;;		_printf
  2025 ;; This function is called by:
  2026 ;;		_reset_codes
  2027 ;; This function uses a non-reentrant model
  2028 ;;
  2029                           
  2030                           	psect	text19
  2031  001884                     __ptext19:
  2032                           	opt stack 0
  2033  001884                     _STKFULtask:
  2034                           	opt stack 25
  2035                           
  2036                           ;sumovore.c: 391: STKPTRbits.STKFUL = 0;
  2037                           
  2038                           ;incstack = 0
  2039  001884  9EFC               	bcf	stkptr,7,c	;volatile
  2040                           
  2041                           ;sumovore.c: 392: printf("<STKFUL>");
  2042  001886  0E10               	movlw	high STR_5
  2043  001888  6E10               	movwf	printf@f+1,c
  2044  00188A  0E59               	movlw	low STR_5
  2045  00188C  6E0F               	movwf	printf@f,c
  2046  00188E  EC77  F00B         	call	_printf	;wreg free
  2047                           
  2048                           ;sumovore.c: 393: PORTDbits.RD0=!1;
  2049  001892  9083               	bcf	3971,0,c	;volatile
  2050                           
  2051                           ;sumovore.c: 394: PORTDbits.RD1=!0;
  2052  001894  8283               	bsf	3971,1,c	;volatile
  2053                           
  2054                           ;sumovore.c: 395: PORTDbits.RD2=!1;
  2055  001896  9483               	bcf	3971,2,c	;volatile
  2056                           
  2057                           ;sumovore.c: 396: PORTDbits.RD3=!0;
  2058  001898  8683               	bsf	3971,3,c	;volatile
  2059                           
  2060                           ;sumovore.c: 397: PORTDbits.RD4=!1;
  2061  00189A  9883               	bcf	3971,4,c	;volatile
  2062                           
  2063                           ;sumovore.c: 398: gtrap();
  2064  00189C  EC85  F00A         	call	_gtrap	;wreg free
  2065  0018A0  0012               	return	
  2066  0018A2                     __end_of_STKFULtask:
  2067                           	opt stack 0
  2068                           stkptr	equ	0xFFC
  2069                           tblptru	equ	0xFF8
  2070                           tblptrh	equ	0xFF7
  2071                           tblptrl	equ	0xFF6
  2072                           tablat	equ	0xFF5
  2073                           prodh	equ	0xFF4
  2074                           prodl	equ	0xFF3
  2075                           intcon	equ	0xFF2
  2076                           status	equ	0xFD8
  2077                           
  2078 ;; *************** function _RESETtask *****************
  2079 ;; Defined at:
  2080 ;;		line 404 in file "../sumovore.c"
  2081 ;; Parameters:    Size  Location     Type
  2082 ;;		None
  2083 ;; Auto vars:     Size  Location     Type
  2084 ;;		None
  2085 ;; Return value:  Size  Location     Type
  2086 ;;		None               void
  2087 ;; Registers used:
  2088 ;;		wreg, status,2, status,0, tblptrl, tblptrh, tblptru, cstack
  2089 ;; Tracked objects:
  2090 ;;		On entry : 0/0
  2091 ;;		On exit  : 0/0
  2092 ;;		Unchanged: 0/0
  2093 ;; Data sizes:     COMRAM   BANK0   BANK1   BANK2   BANK3   BANK4   BANK5   BANK6   BANK7   BANK8   BANK9  BANK10  BANK1
      +1  BANK12  BANK13  BANK14  BANK15
  2094 ;;      Params:         0       0       0       0       0       0       0       0       0       0       0       0       
      +0       0       0       0       0
  2095 ;;      Locals:         0       0       0       0       0       0       0       0       0       0       0       0       
      +0       0       0       0       0
  2096 ;;      Temps:          0       0       0       0       0       0       0       0       0       0       0       0       
      +0       0       0       0       0
  2097 ;;      Totals:         0       0       0       0       0       0       0       0       0       0       0       0       
      +0       0       0       0       0
  2098 ;;Total ram usage:        0 bytes
  2099 ;; Hardware stack levels used:    1
  2100 ;; Hardware stack levels required when called:    3
  2101 ;; This function calls:
  2102 ;;		_gtrap
  2103 ;;		_printf
  2104 ;; This function is called by:
  2105 ;;		_reset_codes
  2106 ;; This function uses a non-reentrant model
  2107 ;;
  2108                           
  2109                           	psect	text20
  2110  0018BE                     __ptext20:
  2111                           	opt stack 0
  2112  0018BE                     _RESETtask:
  2113                           	opt stack 25
  2114                           
  2115                           ;sumovore.c: 407: printf(" <reset> ");
  2116                           
  2117                           ;incstack = 0
  2118  0018BE  0E10               	movlw	high STR_6
  2119  0018C0  6E10               	movwf	printf@f+1,c
  2120  0018C2  0E4F               	movlw	low STR_6
  2121  0018C4  6E0F               	movwf	printf@f,c
  2122  0018C6  EC77  F00B         	call	_printf	;wreg free
  2123                           
  2124                           ;sumovore.c: 408: PORTDbits.RD0=!1;
  2125  0018CA  9083               	bcf	3971,0,c	;volatile
  2126                           
  2127                           ;sumovore.c: 409: PORTDbits.RD1=!0;
  2128  0018CC  8283               	bsf	3971,1,c	;volatile
  2129                           
  2130                           ;sumovore.c: 410: PORTDbits.RD2=!1;
  2131  0018CE  9483               	bcf	3971,2,c	;volatile
  2132                           
  2133                           ;sumovore.c: 411: PORTDbits.RD3=!1;
  2134  0018D0  9683               	bcf	3971,3,c	;volatile
  2135                           
  2136                           ;sumovore.c: 412: PORTDbits.RD4=!1;
  2137  0018D2  9883               	bcf	3971,4,c	;volatile
  2138                           
  2139                           ;sumovore.c: 413: gtrap();
  2140  0018D4  EC85  F00A         	call	_gtrap	;wreg free
  2141  0018D8  0012               	return	
  2142  0018DA                     __end_of_RESETtask:
  2143                           	opt stack 0
  2144                           stkptr	equ	0xFFC
  2145                           tblptru	equ	0xFF8
  2146                           tblptrh	equ	0xFF7
  2147                           tblptrl	equ	0xFF6
  2148                           tablat	equ	0xFF5
  2149                           prodh	equ	0xFF4
  2150                           prodl	equ	0xFF3
  2151                           intcon	equ	0xFF2
  2152                           status	equ	0xFD8
  2153                           
  2154 ;; *************** function _PORtask *****************
  2155 ;; Defined at:
  2156 ;;		line 306 in file "../sumovore.c"
  2157 ;; Parameters:    Size  Location     Type
  2158 ;;		None
  2159 ;; Auto vars:     Size  Location     Type
  2160 ;;  count2          4   23[COMRAM] unsigned long 
  2161 ;;  count1          4   19[COMRAM] unsigned long 
  2162 ;; Return value:  Size  Location     Type
  2163 ;;		None               void
  2164 ;; Registers used:
  2165 ;;		wreg, status,2, status,0, tblptrl, tblptrh, tblptru, cstack
  2166 ;; Tracked objects:
  2167 ;;		On entry : 0/0
  2168 ;;		On exit  : 0/0
  2169 ;;		Unchanged: 0/0
  2170 ;; Data sizes:     COMRAM   BANK0   BANK1   BANK2   BANK3   BANK4   BANK5   BANK6   BANK7   BANK8   BANK9  BANK10  BANK1
      +1  BANK12  BANK13  BANK14  BANK15
  2171 ;;      Params:         0       0       0       0       0       0       0       0       0       0       0       0       
      +0       0       0       0       0
  2172 ;;      Locals:         8       0       0       0       0       0       0       0       0       0       0       0       
      +0       0       0       0       0
  2173 ;;      Temps:          0       0       0       0       0       0       0       0       0       0       0       0       
      +0       0       0       0       0
  2174 ;;      Totals:         8       0       0       0       0       0       0       0       0       0       0       0       
      +0       0       0       0       0
  2175 ;;Total ram usage:        8 bytes
  2176 ;; Hardware stack levels used:    1
  2177 ;; Hardware stack levels required when called:    3
  2178 ;; This function calls:
  2179 ;;		_StatusReset
  2180 ;;		_printf
  2181 ;; This function is called by:
  2182 ;;		_reset_codes
  2183 ;; This function uses a non-reentrant model
  2184 ;;
  2185                           
  2186                           	psect	text21
  2187  00120E                     __ptext21:
  2188                           	opt stack 0
  2189  00120E                     _PORtask:
  2190                           	opt stack 25
  2191                           
  2192                           ;sumovore.c: 308: unsigned long count1=0, count2=0;
  2193                           
  2194                           ;incstack = 0
  2195  00120E  0E00               	movlw	0
  2196  001210  6E14               	movwf	PORtask@count1,c
  2197  001212  0E00               	movlw	0
  2198  001214  6E15               	movwf	PORtask@count1+1,c
  2199  001216  0E00               	movlw	0
  2200  001218  6E16               	movwf	PORtask@count1+2,c
  2201  00121A  0E00               	movlw	0
  2202  00121C  6E17               	movwf	PORtask@count1+3,c
  2203  00121E  0E00               	movlw	0
  2204  001220  6E18               	movwf	PORtask@count2,c
  2205  001222  0E00               	movlw	0
  2206  001224  6E19               	movwf	PORtask@count2+1,c
  2207  001226  0E00               	movlw	0
  2208  001228  6E1A               	movwf	PORtask@count2+2,c
  2209  00122A  0E00               	movlw	0
  2210  00122C  6E1B               	movwf	PORtask@count2+3,c
  2211                           
  2212                           ;sumovore.c: 309: StatusReset();
  2213  00122E  ECCF  F00C         	call	_StatusReset	;wreg free
  2214                           
  2215                           ;sumovore.c: 311: printf("<POR>");
  2216  001232  0E10               	movlw	high STR_2
  2217  001234  6E10               	movwf	printf@f+1,c
  2218  001236  0E78               	movlw	low STR_2
  2219  001238  6E0F               	movwf	printf@f,c
  2220  00123A  EC77  F00B         	call	_printf	;wreg free
  2221                           
  2222                           ;sumovore.c: 312: PORTDbits.RD0=!1;
  2223  00123E  9083               	bcf	3971,0,c	;volatile
  2224                           
  2225                           ;sumovore.c: 313: PORTDbits.RD1=!0;
  2226  001240  8283               	bsf	3971,1,c	;volatile
  2227                           
  2228                           ;sumovore.c: 314: PORTDbits.RD2=!0;
  2229  001242  8483               	bsf	3971,2,c	;volatile
  2230                           
  2231                           ;sumovore.c: 315: PORTDbits.RD3=!0;
  2232  001244  8683               	bsf	3971,3,c	;volatile
  2233                           
  2234                           ;sumovore.c: 316: PORTDbits.RD4=!0;
  2235  001246  8883               	bsf	3971,4,c	;volatile
  2236                           
  2237                           ;sumovore.c: 317: while(count1<10u)
  2238  001248  D02C               	goto	l263
  2239  00124A                     l264:
  2240  00124A  0004               	clrwdt		;# 
  2241                           
  2242                           ;sumovore.c: 320: if (count2==30000u)
  2243  00124C  5019               	movf	PORtask@count2+1,w,c
  2244  00124E  0A75               	xorlw	117
  2245  001250  0E30               	movlw	48
  2246  001252  B4D8               	btfsc	status,2,c
  2247  001254  1818               	xorwf	PORtask@count2,w,c
  2248  001256  101A               	iorwf	PORtask@count2+2,w,c
  2249  001258  101B               	iorwf	PORtask@count2+3,w,c
  2250  00125A  A4D8               	btfss	status,2,c
  2251  00125C  D011               	goto	l1222
  2252                           
  2253                           ;sumovore.c: 321: {
  2254                           ;sumovore.c: 322: count2=0;
  2255  00125E  0E00               	movlw	0
  2256  001260  6E18               	movwf	PORtask@count2,c
  2257  001262  0E00               	movlw	0
  2258  001264  6E19               	movwf	PORtask@count2+1,c
  2259  001266  0E00               	movlw	0
  2260  001268  6E1A               	movwf	PORtask@count2+2,c
  2261  00126A  0E00               	movlw	0
  2262  00126C  6E1B               	movwf	PORtask@count2+3,c
  2263                           
  2264                           ;sumovore.c: 323: count1++;
  2265  00126E  0E01               	movlw	1
  2266  001270  2614               	addwf	PORtask@count1,f,c
  2267  001272  0E00               	movlw	0
  2268  001274  2215               	addwfc	PORtask@count1+1,f,c
  2269  001276  2216               	addwfc	PORtask@count1+2,f,c
  2270  001278  2217               	addwfc	PORtask@count1+3,f,c
  2271                           
  2272                           ;sumovore.c: 324: PORTDbits.RD0=!1;
  2273  00127A  9083               	bcf	3971,0,c	;volatile
  2274                           
  2275                           ;sumovore.c: 325: PORTDbits.RD1=!0;
  2276  00127C  8283               	bsf	3971,1,c	;volatile
  2277                           
  2278                           ;sumovore.c: 326: }
  2279  00127E  D00B               	goto	l1226
  2280  001280                     l1222:
  2281                           
  2282                           ;sumovore.c: 327: else if (count2==15000u)
  2283  001280  5019               	movf	PORtask@count2+1,w,c
  2284  001282  0A3A               	xorlw	58
  2285  001284  0E98               	movlw	152
  2286  001286  B4D8               	btfsc	status,2,c
  2287  001288  1818               	xorwf	PORtask@count2,w,c
  2288  00128A  101A               	iorwf	PORtask@count2+2,w,c
  2289  00128C  101B               	iorwf	PORtask@count2+3,w,c
  2290  00128E  A4D8               	btfss	status,2,c
  2291  001290  D002               	goto	l1226
  2292                           
  2293                           ;sumovore.c: 328: {
  2294                           ;sumovore.c: 329: PORTDbits.RD0=!0;
  2295  001292  8083               	bsf	3971,0,c	;volatile
  2296                           
  2297                           ;sumovore.c: 330: PORTDbits.RD1=!1;
  2298  001294  9283               	bcf	3971,1,c	;volatile
  2299  001296                     l1226:
  2300                           
  2301                           ;sumovore.c: 331: }
  2302                           ;sumovore.c: 332: count2++;
  2303  001296  0E01               	movlw	1
  2304  001298  2618               	addwf	PORtask@count2,f,c
  2305  00129A  0E00               	movlw	0
  2306  00129C  2219               	addwfc	PORtask@count2+1,f,c
  2307  00129E  221A               	addwfc	PORtask@count2+2,f,c
  2308  0012A0  221B               	addwfc	PORtask@count2+3,f,c
  2309  0012A2                     l263:
  2310  0012A2  0E0A               	movlw	10
  2311  0012A4  5C14               	subwf	PORtask@count1,w,c
  2312  0012A6  0E00               	movlw	0
  2313  0012A8  5815               	subwfb	PORtask@count1+1,w,c
  2314  0012AA  0E00               	movlw	0
  2315  0012AC  5816               	subwfb	PORtask@count1+2,w,c
  2316  0012AE  0E00               	movlw	0
  2317  0012B0  5817               	subwfb	PORtask@count1+3,w,c
  2318  0012B2  B0D8               	btfsc	status,0,c
  2319  0012B4  0012               	return	
  2320  0012B6  D7C9               	goto	l264
  2321  0012B8                     __end_of_PORtask:
  2322                           	opt stack 0
  2323                           stkptr	equ	0xFFC
  2324                           tblptru	equ	0xFF8
  2325                           tblptrh	equ	0xFF7
  2326                           tblptrl	equ	0xFF6
  2327                           tablat	equ	0xFF5
  2328                           prodh	equ	0xFF4
  2329                           prodl	equ	0xFF3
  2330                           intcon	equ	0xFF2
  2331                           status	equ	0xFD8
  2332                           
  2333 ;; *************** function _BORtask *****************
  2334 ;; Defined at:
  2335 ;;		line 348 in file "../sumovore.c"
  2336 ;; Parameters:    Size  Location     Type
  2337 ;;		None
  2338 ;; Auto vars:     Size  Location     Type
  2339 ;;		None
  2340 ;; Return value:  Size  Location     Type
  2341 ;;		None               void
  2342 ;; Registers used:
  2343 ;;		wreg, status,2, status,0, tblptrl, tblptrh, tblptru, cstack
  2344 ;; Tracked objects:
  2345 ;;		On entry : 0/0
  2346 ;;		On exit  : 0/0
  2347 ;;		Unchanged: 0/0
  2348 ;; Data sizes:     COMRAM   BANK0   BANK1   BANK2   BANK3   BANK4   BANK5   BANK6   BANK7   BANK8   BANK9  BANK10  BANK1
      +1  BANK12  BANK13  BANK14  BANK15
  2349 ;;      Params:         0       0       0       0       0       0       0       0       0       0       0       0       
      +0       0       0       0       0
  2350 ;;      Locals:         0       0       0       0       0       0       0       0       0       0       0       0       
      +0       0       0       0       0
  2351 ;;      Temps:          0       0       0       0       0       0       0       0       0       0       0       0       
      +0       0       0       0       0
  2352 ;;      Totals:         0       0       0       0       0       0       0       0       0       0       0       0       
      +0       0       0       0       0
  2353 ;;Total ram usage:        0 bytes
  2354 ;; Hardware stack levels used:    1
  2355 ;; Hardware stack levels required when called:    3
  2356 ;; This function calls:
  2357 ;;		_StatusReset
  2358 ;;		_gtrap
  2359 ;;		_printf
  2360 ;; This function is called by:
  2361 ;;		_reset_codes
  2362 ;; This function uses a non-reentrant model
  2363 ;;
  2364                           
  2365                           	psect	text22
  2366  001844                     __ptext22:
  2367                           	opt stack 0
  2368  001844                     _BORtask:
  2369                           	opt stack 25
  2370                           
  2371                           ;sumovore.c: 350: StatusReset();
  2372                           
  2373                           ;incstack = 0
  2374  001844  ECCF  F00C         	call	_StatusReset	;wreg free
  2375                           
  2376                           ;sumovore.c: 352: printf("<BOR>");
  2377  001848  0E10               	movlw	high STR_3
  2378  00184A  6E10               	movwf	printf@f+1,c
  2379  00184C  0E72               	movlw	low STR_3
  2380  00184E  6E0F               	movwf	printf@f,c
  2381  001850  EC77  F00B         	call	_printf	;wreg free
  2382                           
  2383                           ;sumovore.c: 353: PORTDbits.RD0=!0;
  2384  001854  8083               	bsf	3971,0,c	;volatile
  2385                           
  2386                           ;sumovore.c: 354: PORTDbits.RD1=!0;
  2387  001856  8283               	bsf	3971,1,c	;volatile
  2388                           
  2389                           ;sumovore.c: 355: PORTDbits.RD2=!0;
  2390  001858  8483               	bsf	3971,2,c	;volatile
  2391                           
  2392                           ;sumovore.c: 356: PORTDbits.RD3=!0;
  2393  00185A  8683               	bsf	3971,3,c	;volatile
  2394                           
  2395                           ;sumovore.c: 357: PORTDbits.RD4=!1;
  2396  00185C  9883               	bcf	3971,4,c	;volatile
  2397                           
  2398                           ;sumovore.c: 358: gtrap();
  2399  00185E  EC85  F00A         	call	_gtrap	;wreg free
  2400  001862  0012               	return	
  2401  001864                     __end_of_BORtask:
  2402                           	opt stack 0
  2403                           stkptr	equ	0xFFC
  2404                           tblptru	equ	0xFF8
  2405                           tblptrh	equ	0xFF7
  2406                           tblptrl	equ	0xFF6
  2407                           tablat	equ	0xFF5
  2408                           prodh	equ	0xFF4
  2409                           prodl	equ	0xFF3
  2410                           intcon	equ	0xFF2
  2411                           status	equ	0xFD8
  2412                           
  2413 ;; *************** function _StatusReset *****************
  2414 ;; Defined at:
  2415 ;;		line 10 in file "C:\Program Files (x86)\Microchip\xc8\v1.33\sources\pic18\plib\reset\statrst.c"
  2416 ;; Parameters:    Size  Location     Type
  2417 ;;		None
  2418 ;; Auto vars:     Size  Location     Type
  2419 ;;		None
  2420 ;; Return value:  Size  Location     Type
  2421 ;;		None               void
  2422 ;; Registers used:
  2423 ;;		None
  2424 ;; Tracked objects:
  2425 ;;		On entry : 0/0
  2426 ;;		On exit  : 0/0
  2427 ;;		Unchanged: 0/0
  2428 ;; Data sizes:     COMRAM   BANK0   BANK1   BANK2   BANK3   BANK4   BANK5   BANK6   BANK7   BANK8   BANK9  BANK10  BANK1
      +1  BANK12  BANK13  BANK14  BANK15
  2429 ;;      Params:         0       0       0       0       0       0       0       0       0       0       0       0       
      +0       0       0       0       0
  2430 ;;      Locals:         0       0       0       0       0       0       0       0       0       0       0       0       
      +0       0       0       0       0
  2431 ;;      Temps:          0       0       0       0       0       0       0       0       0       0       0       0       
      +0       0       0       0       0
  2432 ;;      Totals:         0       0       0       0       0       0       0       0       0       0       0       0       
      +0       0       0       0       0
  2433 ;;Total ram usage:        0 bytes
  2434 ;; Hardware stack levels used:    1
  2435 ;; Hardware stack levels required when called:    1
  2436 ;; This function calls:
  2437 ;;		Nothing
  2438 ;; This function is called by:
  2439 ;;		_PORtask
  2440 ;;		_BORtask
  2441 ;; This function uses a non-reentrant model
  2442 ;;
  2443                           
  2444                           	psect	text23
  2445  00199E                     __ptext23:
  2446                           	opt stack 0
  2447  00199E                     _StatusReset:
  2448                           	opt stack 26
  2449                           
  2450                           ;incstack = 0
  2451  00199E  82D0               	bsf	4048,1,c	;volatile
  2452  0019A0  80D0               	bsf	4048,0,c	;volatile
  2453  0019A2  0012               	return	
  2454  0019A4                     __end_of_StatusReset:
  2455                           	opt stack 0
  2456                           stkptr	equ	0xFFC
  2457                           tblptru	equ	0xFF8
  2458                           tblptrh	equ	0xFF7
  2459                           tblptrl	equ	0xFF6
  2460                           tablat	equ	0xFF5
  2461                           prodh	equ	0xFF4
  2462                           prodl	equ	0xFF3
  2463                           intcon	equ	0xFF2
  2464                           status	equ	0xFD8
  2465                           
  2466 ;; *************** function _openPORTE *****************
  2467 ;; Defined at:
  2468 ;;		line 178 in file "../sumovore.c"
  2469 ;; Parameters:    Size  Location     Type
  2470 ;;		None
  2471 ;; Auto vars:     Size  Location     Type
  2472 ;;		None
  2473 ;; Return value:  Size  Location     Type
  2474 ;;		None               void
  2475 ;; Registers used:
  2476 ;;		wreg, status,2
  2477 ;; Tracked objects:
  2478 ;;		On entry : 0/0
  2479 ;;		On exit  : 0/0
  2480 ;;		Unchanged: 0/0
  2481 ;; Data sizes:     COMRAM   BANK0   BANK1   BANK2   BANK3   BANK4   BANK5   BANK6   BANK7   BANK8   BANK9  BANK10  BANK1
      +1  BANK12  BANK13  BANK14  BANK15
  2482 ;;      Params:         0       0       0       0       0       0       0       0       0       0       0       0       
      +0       0       0       0       0
  2483 ;;      Locals:         0       0       0       0       0       0       0       0       0       0       0       0       
      +0       0       0       0       0
  2484 ;;      Temps:          0       0       0       0       0       0       0       0       0       0       0       0       
      +0       0       0       0       0
  2485 ;;      Totals:         0       0       0       0       0       0       0       0       0       0       0       0       
      +0       0       0       0       0
  2486 ;;Total ram usage:        0 bytes
  2487 ;; Hardware stack levels used:    1
  2488 ;; Hardware stack levels required when called:    1
  2489 ;; This function calls:
  2490 ;;		Nothing
  2491 ;; This function is called by:
  2492 ;;		_initialization
  2493 ;; This function uses a non-reentrant model
  2494 ;;
  2495                           
  2496                           	psect	text24
  2497  0019A4                     __ptext24:
  2498                           	opt stack 0
  2499  0019A4                     _openPORTE:
  2500                           	opt stack 28
  2501                           
  2502                           ;sumovore.c: 180: TRISE = 0b000;
  2503                           
  2504                           ;incstack = 0
  2505  0019A4  0E00               	movlw	0
  2506  0019A6  6E96               	movwf	3990,c	;volatile
  2507  0019A8  0012               	return	
  2508  0019AA                     __end_of_openPORTE:
  2509                           	opt stack 0
  2510                           stkptr	equ	0xFFC
  2511                           tblptru	equ	0xFF8
  2512                           tblptrh	equ	0xFF7
  2513                           tblptrl	equ	0xFF6
  2514                           tablat	equ	0xFF5
  2515                           prodh	equ	0xFF4
  2516                           prodl	equ	0xFF3
  2517                           intcon	equ	0xFF2
  2518                           status	equ	0xFD8
  2519                           
  2520 ;; *************** function _openPORTCforUSART *****************
  2521 ;; Defined at:
  2522 ;;		line 124 in file "../sumovore.c"
  2523 ;; Parameters:    Size  Location     Type
  2524 ;;		None
  2525 ;; Auto vars:     Size  Location     Type
  2526 ;;		None
  2527 ;; Return value:  Size  Location     Type
  2528 ;;		None               void
  2529 ;; Registers used:
  2530 ;;		None
  2531 ;; Tracked objects:
  2532 ;;		On entry : 0/0
  2533 ;;		On exit  : 0/0
  2534 ;;		Unchanged: 0/0
  2535 ;; Data sizes:     COMRAM   BANK0   BANK1   BANK2   BANK3   BANK4   BANK5   BANK6   BANK7   BANK8   BANK9  BANK10  BANK1
      +1  BANK12  BANK13  BANK14  BANK15
  2536 ;;      Params:         0       0       0       0       0       0       0       0       0       0       0       0       
      +0       0       0       0       0
  2537 ;;      Locals:         0       0       0       0       0       0       0       0       0       0       0       0       
      +0       0       0       0       0
  2538 ;;      Temps:          0       0       0       0       0       0       0       0       0       0       0       0       
      +0       0       0       0       0
  2539 ;;      Totals:         0       0       0       0       0       0       0       0       0       0       0       0       
      +0       0       0       0       0
  2540 ;;Total ram usage:        0 bytes
  2541 ;; Hardware stack levels used:    1
  2542 ;; Hardware stack levels required when called:    1
  2543 ;; This function calls:
  2544 ;;		Nothing
  2545 ;; This function is called by:
  2546 ;;		_initialization
  2547 ;; This function uses a non-reentrant model
  2548 ;;
  2549                           
  2550                           	psect	text25
  2551  0019AA                     __ptext25:
  2552                           	opt stack 0
  2553  0019AA                     _openPORTCforUSART:
  2554                           	opt stack 28
  2555                           
  2556                           ;sumovore.c: 126: TRISCbits.TRISC6 = 0;
  2557                           
  2558                           ;incstack = 0
  2559  0019AA  9C94               	bcf	3988,6,c	;volatile
  2560                           
  2561                           ;sumovore.c: 127: TRISCbits.TRISC7 = 1;
  2562  0019AC  8E94               	bsf	3988,7,c	;volatile
  2563  0019AE  0012               	return	
  2564  0019B0                     __end_of_openPORTCforUSART:
  2565                           	opt stack 0
  2566                           stkptr	equ	0xFFC
  2567                           tblptru	equ	0xFF8
  2568                           tblptrh	equ	0xFF7
  2569                           tblptrl	equ	0xFF6
  2570                           tablat	equ	0xFF5
  2571                           prodh	equ	0xFF4
  2572                           prodl	equ	0xFF3
  2573                           intcon	equ	0xFF2
  2574                           status	equ	0xFD8
  2575                           
  2576 ;; *************** function _openPORTCforPWM *****************
  2577 ;; Defined at:
  2578 ;;		line 133 in file "../sumovore.c"
  2579 ;; Parameters:    Size  Location     Type
  2580 ;;		None
  2581 ;; Auto vars:     Size  Location     Type
  2582 ;;		None
  2583 ;; Return value:  Size  Location     Type
  2584 ;;		None               void
  2585 ;; Registers used:
  2586 ;;		None
  2587 ;; Tracked objects:
  2588 ;;		On entry : 0/0
  2589 ;;		On exit  : 0/0
  2590 ;;		Unchanged: 0/0
  2591 ;; Data sizes:     COMRAM   BANK0   BANK1   BANK2   BANK3   BANK4   BANK5   BANK6   BANK7   BANK8   BANK9  BANK10  BANK1
      +1  BANK12  BANK13  BANK14  BANK15
  2592 ;;      Params:         0       0       0       0       0       0       0       0       0       0       0       0       
      +0       0       0       0       0
  2593 ;;      Locals:         0       0       0       0       0       0       0       0       0       0       0       0       
      +0       0       0       0       0
  2594 ;;      Temps:          0       0       0       0       0       0       0       0       0       0       0       0       
      +0       0       0       0       0
  2595 ;;      Totals:         0       0       0       0       0       0       0       0       0       0       0       0       
      +0       0       0       0       0
  2596 ;;Total ram usage:        0 bytes
  2597 ;; Hardware stack levels used:    1
  2598 ;; Hardware stack levels required when called:    1
  2599 ;; This function calls:
  2600 ;;		Nothing
  2601 ;; This function is called by:
  2602 ;;		_initialization
  2603 ;; This function uses a non-reentrant model
  2604 ;;
  2605                           
  2606                           	psect	text26
  2607  00197A                     __ptext26:
  2608                           	opt stack 0
  2609  00197A                     _openPORTCforPWM:
  2610                           	opt stack 28
  2611                           
  2612                           ;sumovore.c: 135: TRISCbits.TRISC0 = 0;
  2613                           
  2614                           ;incstack = 0
  2615  00197A  9094               	bcf	3988,0,c	;volatile
  2616                           
  2617                           ;sumovore.c: 136: TRISCbits.TRISC1 = 0;
  2618  00197C  9294               	bcf	3988,1,c	;volatile
  2619                           
  2620                           ;sumovore.c: 137: TRISCbits.TRISC2 = 0;
  2621  00197E  9494               	bcf	3988,2,c	;volatile
  2622                           
  2623                           ;sumovore.c: 138: TRISCbits.TRISC3 = 0;
  2624  001980  9694               	bcf	3988,3,c	;volatile
  2625                           
  2626                           ;sumovore.c: 139: TRISCbits.TRISC4 = 0;
  2627  001982  9894               	bcf	3988,4,c	;volatile
  2628                           
  2629                           ;sumovore.c: 140: TRISCbits.TRISC5 = 0;
  2630  001984  9A94               	bcf	3988,5,c	;volatile
  2631  001986  0012               	return	
  2632  001988                     __end_of_openPORTCforPWM:
  2633                           	opt stack 0
  2634                           stkptr	equ	0xFFC
  2635                           tblptru	equ	0xFF8
  2636                           tblptrh	equ	0xFF7
  2637                           tblptrl	equ	0xFF6
  2638                           tablat	equ	0xFF5
  2639                           prodh	equ	0xFF4
  2640                           prodl	equ	0xFF3
  2641                           intcon	equ	0xFF2
  2642                           status	equ	0xFD8
  2643                           
  2644 ;; *************** function _openPORTB *****************
  2645 ;; Defined at:
  2646 ;;		line 158 in file "../sumovore.c"
  2647 ;; Parameters:    Size  Location     Type
  2648 ;;		None
  2649 ;; Auto vars:     Size  Location     Type
  2650 ;;		None
  2651 ;; Return value:  Size  Location     Type
  2652 ;;		None               void
  2653 ;; Registers used:
  2654 ;;		wreg, status,2
  2655 ;; Tracked objects:
  2656 ;;		On entry : 0/0
  2657 ;;		On exit  : 0/0
  2658 ;;		Unchanged: 0/0
  2659 ;; Data sizes:     COMRAM   BANK0   BANK1   BANK2   BANK3   BANK4   BANK5   BANK6   BANK7   BANK8   BANK9  BANK10  BANK1
      +1  BANK12  BANK13  BANK14  BANK15
  2660 ;;      Params:         0       0       0       0       0       0       0       0       0       0       0       0       
      +0       0       0       0       0
  2661 ;;      Locals:         0       0       0       0       0       0       0       0       0       0       0       0       
      +0       0       0       0       0
  2662 ;;      Temps:          0       0       0       0       0       0       0       0       0       0       0       0       
      +0       0       0       0       0
  2663 ;;      Totals:         0       0       0       0       0       0       0       0       0       0       0       0       
      +0       0       0       0       0
  2664 ;;Total ram usage:        0 bytes
  2665 ;; Hardware stack levels used:    1
  2666 ;; Hardware stack levels required when called:    1
  2667 ;; This function calls:
  2668 ;;		Nothing
  2669 ;; This function is called by:
  2670 ;;		_initialization
  2671 ;; This function uses a non-reentrant model
  2672 ;;
  2673                           
  2674                           	psect	text27
  2675  0019B0                     __ptext27:
  2676                           	opt stack 0
  2677  0019B0                     _openPORTB:
  2678                           	opt stack 28
  2679                           
  2680                           ;sumovore.c: 160: TRISB = 0B11000000;
  2681                           
  2682                           ;incstack = 0
  2683  0019B0  0EC0               	movlw	192
  2684  0019B2  6E93               	movwf	3987,c	;volatile
  2685  0019B4  0012               	return	
  2686  0019B6                     __end_of_openPORTB:
  2687                           	opt stack 0
  2688                           stkptr	equ	0xFFC
  2689                           tblptru	equ	0xFF8
  2690                           tblptrh	equ	0xFF7
  2691                           tblptrl	equ	0xFF6
  2692                           tablat	equ	0xFF5
  2693                           prodh	equ	0xFF4
  2694                           prodl	equ	0xFF3
  2695                           intcon	equ	0xFF2
  2696                           status	equ	0xFD8
  2697                           
  2698 ;; *************** function _openPORTA *****************
  2699 ;; Defined at:
  2700 ;;		line 147 in file "../sumovore.c"
  2701 ;; Parameters:    Size  Location     Type
  2702 ;;		None
  2703 ;; Auto vars:     Size  Location     Type
  2704 ;;		None
  2705 ;; Return value:  Size  Location     Type
  2706 ;;		None               void
  2707 ;; Registers used:
  2708 ;;		wreg, status,2
  2709 ;; Tracked objects:
  2710 ;;		On entry : 0/0
  2711 ;;		On exit  : 0/0
  2712 ;;		Unchanged: 0/0
  2713 ;; Data sizes:     COMRAM   BANK0   BANK1   BANK2   BANK3   BANK4   BANK5   BANK6   BANK7   BANK8   BANK9  BANK10  BANK1
      +1  BANK12  BANK13  BANK14  BANK15
  2714 ;;      Params:         0       0       0       0       0       0       0       0       0       0       0       0       
      +0       0       0       0       0
  2715 ;;      Locals:         0       0       0       0       0       0       0       0       0       0       0       0       
      +0       0       0       0       0
  2716 ;;      Temps:          0       0       0       0       0       0       0       0       0       0       0       0       
      +0       0       0       0       0
  2717 ;;      Totals:         0       0       0       0       0       0       0       0       0       0       0       0       
      +0       0       0       0       0
  2718 ;;Total ram usage:        0 bytes
  2719 ;; Hardware stack levels used:    1
  2720 ;; Hardware stack levels required when called:    1
  2721 ;; This function calls:
  2722 ;;		Nothing
  2723 ;; This function is called by:
  2724 ;;		_initialization
  2725 ;; This function uses a non-reentrant model
  2726 ;;
  2727                           
  2728                           	psect	text28
  2729  0019B6                     __ptext28:
  2730                           	opt stack 0
  2731  0019B6                     _openPORTA:
  2732                           	opt stack 28
  2733                           
  2734                           ;sumovore.c: 149: TRISA = 0B11101111;
  2735                           
  2736                           ;incstack = 0
  2737  0019B6  0EEF               	movlw	239
  2738  0019B8  6E92               	movwf	3986,c	;volatile
  2739  0019BA  0012               	return	
  2740  0019BC                     __end_of_openPORTA:
  2741                           	opt stack 0
  2742                           stkptr	equ	0xFFC
  2743                           tblptru	equ	0xFF8
  2744                           tblptrh	equ	0xFF7
  2745                           tblptrl	equ	0xFF6
  2746                           tablat	equ	0xFF5
  2747                           prodh	equ	0xFF4
  2748                           prodl	equ	0xFF3
  2749                           intcon	equ	0xFF2
  2750                           status	equ	0xFD8
  2751                           
  2752 ;; *************** function _openLVD *****************
  2753 ;; Defined at:
  2754 ;;		line 427 in file "../sumovore.c"
  2755 ;; Parameters:    Size  Location     Type
  2756 ;;		None
  2757 ;; Auto vars:     Size  Location     Type
  2758 ;;		None
  2759 ;; Return value:  Size  Location     Type
  2760 ;;		None               void
  2761 ;; Registers used:
  2762 ;;		None
  2763 ;; Tracked objects:
  2764 ;;		On entry : 0/0
  2765 ;;		On exit  : 0/0
  2766 ;;		Unchanged: 0/0
  2767 ;; Data sizes:     COMRAM   BANK0   BANK1   BANK2   BANK3   BANK4   BANK5   BANK6   BANK7   BANK8   BANK9  BANK10  BANK1
      +1  BANK12  BANK13  BANK14  BANK15
  2768 ;;      Params:         0       0       0       0       0       0       0       0       0       0       0       0       
      +0       0       0       0       0
  2769 ;;      Locals:         0       0       0       0       0       0       0       0       0       0       0       0       
      +0       0       0       0       0
  2770 ;;      Temps:          0       0       0       0       0       0       0       0       0       0       0       0       
      +0       0       0       0       0
  2771 ;;      Totals:         0       0       0       0       0       0       0       0       0       0       0       0       
      +0       0       0       0       0
  2772 ;;Total ram usage:        0 bytes
  2773 ;; Hardware stack levels used:    1
  2774 ;; Hardware stack levels required when called:    1
  2775 ;; This function calls:
  2776 ;;		Nothing
  2777 ;; This function is called by:
  2778 ;;		_initialization
  2779 ;; This function uses a non-reentrant model
  2780 ;;
  2781                           
  2782                           	psect	text29
  2783  0018F6                     __ptext29:
  2784                           	opt stack 0
  2785  0018F6                     _openLVD:
  2786                           	opt stack 28
  2787                           
  2788                           ;sumovore.c: 429: RCONbits.IPEN = 1;
  2789                           
  2790                           ;incstack = 0
  2791  0018F6  8ED0               	bsf	4048,7,c	;volatile
  2792                           
  2793                           ;sumovore.c: 430: HLVDCONbits.HLVDEN = 1;
  2794  0018F8  88D2               	bsf	4050,4,c	;volatile
  2795                           
  2796                           ;sumovore.c: 432: IPR2bits.HLVDIP = 1;
  2797  0018FA  84A2               	bsf	4002,2,c	;volatile
  2798                           
  2799                           ;sumovore.c: 433: HLVDCONbits.VDIRMAG = 0;
  2800  0018FC  9ED2               	bcf	4050,7,c	;volatile
  2801                           
  2802                           ;sumovore.c: 435: HLVDCONbits.HLVDL3 = 1;
  2803  0018FE  86D2               	bsf	4050,3,c	;volatile
  2804                           
  2805                           ;sumovore.c: 436: HLVDCONbits.HLVDL2 = 1;
  2806  001900  84D2               	bsf	4050,2,c	;volatile
  2807                           
  2808                           ;sumovore.c: 437: HLVDCONbits.HLVDL1 = 1;
  2809  001902  82D2               	bsf	4050,1,c	;volatile
  2810                           
  2811                           ;sumovore.c: 438: HLVDCONbits.HLVDL0 = 0;
  2812  001904  90D2               	bcf	4050,0,c	;volatile
  2813                           
  2814                           ;sumovore.c: 439: PIR2bits.HLVDIF = 0;
  2815  001906  94A1               	bcf	4001,2,c	;volatile
  2816                           
  2817                           ;sumovore.c: 440: PIE2bits.HLVDIE = 1;
  2818  001908  84A0               	bsf	4000,2,c	;volatile
  2819                           
  2820                           ;sumovore.c: 441: INTCONbits.GIEH = 1;
  2821  00190A  8EF2               	bsf	intcon,7,c	;volatile
  2822  00190C  0012               	return	
  2823  00190E                     __end_of_openLVD:
  2824                           	opt stack 0
  2825                           stkptr	equ	0xFFC
  2826                           tblptru	equ	0xFF8
  2827                           tblptrh	equ	0xFF7
  2828                           tblptrl	equ	0xFF6
  2829                           tablat	equ	0xFF5
  2830                           prodh	equ	0xFF4
  2831                           prodl	equ	0xFF3
  2832                           intcon	equ	0xFF2
  2833                           status	equ	0xFD8
  2834                           
  2835 ;; *************** function _SetDCPWM2 *****************
  2836 ;; Defined at:
  2837 ;;		line 7 in file "C:\Program Files (x86)\Microchip\xc8\v1.33\sources\pic18\plib\PWM\pw2setdc.c"
  2838 ;; Parameters:    Size  Location     Type
  2839 ;;  dutycycle       2   14[COMRAM] unsigned int 
  2840 ;; Auto vars:     Size  Location     Type
  2841 ;;  DCycle          2   18[COMRAM] struct PWMDC
  2842 ;; Return value:  Size  Location     Type
  2843 ;;		None               void
  2844 ;; Registers used:
  2845 ;;		wreg, status,2, status,0
  2846 ;; Tracked objects:
  2847 ;;		On entry : 0/0
  2848 ;;		On exit  : 0/0
  2849 ;;		Unchanged: 0/0
  2850 ;; Data sizes:     COMRAM   BANK0   BANK1   BANK2   BANK3   BANK4   BANK5   BANK6   BANK7   BANK8   BANK9  BANK10  BANK1
      +1  BANK12  BANK13  BANK14  BANK15
  2851 ;;      Params:         2       0       0       0       0       0       0       0       0       0       0       0       
      +0       0       0       0       0
  2852 ;;      Locals:         2       0       0       0       0       0       0       0       0       0       0       0       
      +0       0       0       0       0
  2853 ;;      Temps:          2       0       0       0       0       0       0       0       0       0       0       0       
      +0       0       0       0       0
  2854 ;;      Totals:         6       0       0       0       0       0       0       0       0       0       0       0       
      +0       0       0       0       0
  2855 ;;Total ram usage:        6 bytes
  2856 ;; Hardware stack levels used:    1
  2857 ;; Hardware stack levels required when called:    1
  2858 ;; This function calls:
  2859 ;;		Nothing
  2860 ;; This function is called by:
  2861 ;;		_initialization
  2862 ;;		_set_motor_speed
  2863 ;;		_motors_brake_all
  2864 ;; This function uses a non-reentrant model
  2865 ;;
  2866                           
  2867                           	psect	text30
  2868  0015A8                     __ptext30:
  2869                           	opt stack 0
  2870  0015A8                     _SetDCPWM2:
  2871                           	opt stack 27
  2872                           
  2873                           ;incstack = 0
  2874  0015A8  C00F  F011         	movff	SetDCPWM2@dutycycle,??_SetDCPWM2
  2875  0015AC  C010  F012         	movff	SetDCPWM2@dutycycle+1,??_SetDCPWM2+1
  2876  0015B0  0E06               	movlw	6
  2877  0015B2                     u25:
  2878  0015B2  90D8               	bcf	status,0,c
  2879  0015B4  3611               	rlcf	??_SetDCPWM2,f,c
  2880  0015B6  3612               	rlcf	??_SetDCPWM2+1,f,c
  2881  0015B8  2EE8               	decfsz	wreg,f,c
  2882  0015BA  D7FB               	goto	u25
  2883  0015BC  C011  F013         	movff	??_SetDCPWM2,SetDCPWM2@DCycle
  2884  0015C0  C012  F014         	movff	??_SetDCPWM2+1,SetDCPWM2@DCycle+1
  2885  0015C4  C014  FFBB         	movff	SetDCPWM2@DCycle+1,4027	;volatile
  2886  0015C8  C013  F011         	movff	SetDCPWM2@DCycle,??_SetDCPWM2
  2887  0015CC  90D8               	bcf	status,0,c
  2888  0015CE  3211               	rrcf	??_SetDCPWM2,f,c
  2889  0015D0  90D8               	bcf	status,0,c
  2890  0015D2  3211               	rrcf	??_SetDCPWM2,f,c
  2891  0015D4  0E30               	movlw	48
  2892  0015D6  1611               	andwf	??_SetDCPWM2,f,c
  2893  0015D8  50BA               	movf	4026,w,c	;volatile
  2894  0015DA  0BCF               	andlw	207
  2895  0015DC  1011               	iorwf	??_SetDCPWM2,w,c
  2896  0015DE  6EBA               	movwf	4026,c	;volatile
  2897  0015E0  0012               	return	
  2898  0015E2                     __end_of_SetDCPWM2:
  2899                           	opt stack 0
  2900                           stkptr	equ	0xFFC
  2901                           tblptru	equ	0xFF8
  2902                           tblptrh	equ	0xFF7
  2903                           tblptrl	equ	0xFF6
  2904                           tablat	equ	0xFF5
  2905                           prodh	equ	0xFF4
  2906                           prodl	equ	0xFF3
  2907                           intcon	equ	0xFF2
  2908                           wreg	equ	0xFE8
  2909                           status	equ	0xFD8
  2910                           
  2911 ;; *************** function _SetDCPWM1 *****************
  2912 ;; Defined at:
  2913 ;;		line 7 in file "C:\Program Files (x86)\Microchip\xc8\v1.33\sources\pic18\plib\PWM\pw1setdc.c"
  2914 ;; Parameters:    Size  Location     Type
  2915 ;;  dutycycle       2   14[COMRAM] unsigned int 
  2916 ;; Auto vars:     Size  Location     Type
  2917 ;;  DCycle          2   18[COMRAM] struct PWMDC
  2918 ;; Return value:  Size  Location     Type
  2919 ;;		None               void
  2920 ;; Registers used:
  2921 ;;		wreg, status,2, status,0
  2922 ;; Tracked objects:
  2923 ;;		On entry : 0/0
  2924 ;;		On exit  : 0/0
  2925 ;;		Unchanged: 0/0
  2926 ;; Data sizes:     COMRAM   BANK0   BANK1   BANK2   BANK3   BANK4   BANK5   BANK6   BANK7   BANK8   BANK9  BANK10  BANK1
      +1  BANK12  BANK13  BANK14  BANK15
  2927 ;;      Params:         2       0       0       0       0       0       0       0       0       0       0       0       
      +0       0       0       0       0
  2928 ;;      Locals:         2       0       0       0       0       0       0       0       0       0       0       0       
      +0       0       0       0       0
  2929 ;;      Temps:          2       0       0       0       0       0       0       0       0       0       0       0       
      +0       0       0       0       0
  2930 ;;      Totals:         6       0       0       0       0       0       0       0       0       0       0       0       
      +0       0       0       0       0
  2931 ;;Total ram usage:        6 bytes
  2932 ;; Hardware stack levels used:    1
  2933 ;; Hardware stack levels required when called:    1
  2934 ;; This function calls:
  2935 ;;		Nothing
  2936 ;; This function is called by:
  2937 ;;		_initialization
  2938 ;;		_set_motor_speed
  2939 ;;		_motors_brake_all
  2940 ;; This function uses a non-reentrant model
  2941 ;;
  2942                           
  2943                           	psect	text31
  2944  0015E2                     __ptext31:
  2945                           	opt stack 0
  2946  0015E2                     _SetDCPWM1:
  2947                           	opt stack 27
  2948                           
  2949                           ;incstack = 0
  2950  0015E2  C00F  F011         	movff	SetDCPWM1@dutycycle,??_SetDCPWM1
  2951  0015E6  C010  F012         	movff	SetDCPWM1@dutycycle+1,??_SetDCPWM1+1
  2952  0015EA  0E06               	movlw	6
  2953  0015EC                     u15:
  2954  0015EC  90D8               	bcf	status,0,c
  2955  0015EE  3611               	rlcf	??_SetDCPWM1,f,c
  2956  0015F0  3612               	rlcf	??_SetDCPWM1+1,f,c
  2957  0015F2  2EE8               	decfsz	wreg,f,c
  2958  0015F4  D7FB               	goto	u15
  2959  0015F6  C011  F013         	movff	??_SetDCPWM1,SetDCPWM1@DCycle
  2960  0015FA  C012  F014         	movff	??_SetDCPWM1+1,SetDCPWM1@DCycle+1
  2961  0015FE  C014  FFBE         	movff	SetDCPWM1@DCycle+1,4030	;volatile
  2962  001602  C013  F011         	movff	SetDCPWM1@DCycle,??_SetDCPWM1
  2963  001606  90D8               	bcf	status,0,c
  2964  001608  3211               	rrcf	??_SetDCPWM1,f,c
  2965  00160A  90D8               	bcf	status,0,c
  2966  00160C  3211               	rrcf	??_SetDCPWM1,f,c
  2967  00160E  0E30               	movlw	48
  2968  001610  1611               	andwf	??_SetDCPWM1,f,c
  2969  001612  50BD               	movf	4029,w,c	;volatile
  2970  001614  0BCF               	andlw	207
  2971  001616  1011               	iorwf	??_SetDCPWM1,w,c
  2972  001618  6EBD               	movwf	4029,c	;volatile
  2973  00161A  0012               	return	
  2974  00161C                     __end_of_SetDCPWM1:
  2975                           	opt stack 0
  2976                           stkptr	equ	0xFFC
  2977                           tblptru	equ	0xFF8
  2978                           tblptrh	equ	0xFF7
  2979                           tblptrl	equ	0xFF6
  2980                           tablat	equ	0xFF5
  2981                           prodh	equ	0xFF4
  2982                           prodl	equ	0xFF3
  2983                           intcon	equ	0xFF2
  2984                           wreg	equ	0xFE8
  2985                           status	equ	0xFD8
  2986                           
  2987 ;; *************** function _OpenUSART *****************
  2988 ;; Defined at:
  2989 ;;		line 73 in file "C:\Program Files (x86)\Microchip\xc8\v1.33\sources\pic18\plib\USART\uopen.c"
  2990 ;; Parameters:    Size  Location     Type
  2991 ;;  config          1    wreg     unsigned char 
  2992 ;;  spbrg           2   14[COMRAM] unsigned int 
  2993 ;; Auto vars:     Size  Location     Type
  2994 ;;  config          1   19[COMRAM] unsigned char 
  2995 ;; Return value:  Size  Location     Type
  2996 ;;		None               void
  2997 ;; Registers used:
  2998 ;;		wreg, status,2
  2999 ;; Tracked objects:
  3000 ;;		On entry : 0/0
  3001 ;;		On exit  : 0/0
  3002 ;;		Unchanged: 0/0
  3003 ;; Data sizes:     COMRAM   BANK0   BANK1   BANK2   BANK3   BANK4   BANK5   BANK6   BANK7   BANK8   BANK9  BANK10  BANK1
      +1  BANK12  BANK13  BANK14  BANK15
  3004 ;;      Params:         2       0       0       0       0       0       0       0       0       0       0       0       
      +0       0       0       0       0
  3005 ;;      Locals:         1       0       0       0       0       0       0       0       0       0       0       0       
      +0       0       0       0       0
  3006 ;;      Temps:          3       0       0       0       0       0       0       0       0       0       0       0       
      +0       0       0       0       0
  3007 ;;      Totals:         6       0       0       0       0       0       0       0       0       0       0       0       
      +0       0       0       0       0
  3008 ;;Total ram usage:        6 bytes
  3009 ;; Hardware stack levels used:    1
  3010 ;; Hardware stack levels required when called:    1
  3011 ;; This function calls:
  3012 ;;		Nothing
  3013 ;; This function is called by:
  3014 ;;		_initialization
  3015 ;; This function uses a non-reentrant model
  3016 ;;
  3017                           
  3018                           	psect	text32
  3019  001444                     __ptext32:
  3020                           	opt stack 0
  3021  001444                     _OpenUSART:
  3022                           	opt stack 28
  3023                           
  3024                           ;incstack = 0
  3025                           ;OpenUSART@config stored from wreg
  3026  001444  6E14               	movwf	OpenUSART@config,c
  3027  001446  0E00               	movlw	0
  3028  001448  6EAC               	movwf	4012,c	;volatile
  3029  00144A  0E00               	movlw	0
  3030  00144C  6EAB               	movwf	4011,c	;volatile
  3031  00144E  B014               	btfsc	OpenUSART@config,0,c
  3032  001450  88AC               	bsf	4012,4,c	;volatile
  3033  001452  A214               	btfss	OpenUSART@config,1,c
  3034  001454  D002               	goto	l1378
  3035  001456  8CAC               	bsf	4012,6,c	;volatile
  3036  001458  8CAB               	bsf	4011,6,c	;volatile
  3037  00145A                     l1378:
  3038  00145A  B414               	btfsc	OpenUSART@config,2,c
  3039  00145C  8EAC               	bsf	4012,7,c	;volatile
  3040  00145E  A614               	btfss	OpenUSART@config,3,c
  3041  001460  D002               	goto	l448
  3042  001462  88AB               	bsf	4011,4,c	;volatile
  3043  001464  D001               	goto	l1386
  3044  001466                     l448:
  3045  001466  8AAB               	bsf	4011,5,c	;volatile
  3046  001468                     l1386:
  3047  001468  B814               	btfsc	OpenUSART@config,4,c
  3048  00146A  84AC               	bsf	4012,2,c	;volatile
  3049  00146C  989E               	bcf	3998,4,c	;volatile
  3050  00146E  BA14               	btfsc	OpenUSART@config,5,c
  3051  001470  86AB               	bsf	4011,3,c	;volatile
  3052  001472  AC14               	btfss	OpenUSART@config,6,c
  3053  001474  D002               	goto	l452
  3054  001476  8A9D               	bsf	3997,5,c	;volatile
  3055  001478  D001               	goto	l453
  3056  00147A                     l452:
  3057  00147A  9A9D               	bcf	3997,5,c	;volatile
  3058  00147C                     l453:
  3059  00147C  9A9E               	bcf	3998,5,c	;volatile
  3060  00147E  AE14               	btfss	OpenUSART@config,7,c
  3061  001480  D002               	goto	l454
  3062  001482  889D               	bsf	3997,4,c	;volatile
  3063  001484  D001               	goto	l455
  3064  001486                     l454:
  3065  001486  989D               	bcf	3997,4,c	;volatile
  3066  001488                     l455:
  3067  001488  C00F  FFAF         	movff	OpenUSART@spbrg,4015	;volatile
  3068  00148C  C010  F011         	movff	OpenUSART@spbrg+1,??_OpenUSART
  3069  001490  C011  F012         	movff	??_OpenUSART,??_OpenUSART+1
  3070  001494  6A13               	clrf	(??_OpenUSART+2)& (0+255),c
  3071  001496  5012               	movf	??_OpenUSART+1,w,c
  3072  001498  6EB0               	movwf	4016,c	;volatile
  3073  00149A  8AAC               	bsf	4012,5,c	;volatile
  3074  00149C  8EAB               	bsf	4011,7,c	;volatile
  3075  00149E  9C94               	bcf	3988,6,c	;volatile
  3076  0014A0  8E94               	bsf	3988,7,c	;volatile
  3077  0014A2  B8AC               	btfsc	4012,4,c	;volatile
  3078  0014A4  BEAC               	btfsc	4012,7,c	;volatile
  3079  0014A6  D001               	goto	l457
  3080  0014A8  8C94               	bsf	3988,6,c	;volatile
  3081  0014AA                     l457:
  3082  0014AA  0012               	return	
  3083  0014AC                     __end_of_OpenUSART:
  3084                           	opt stack 0
  3085                           stkptr	equ	0xFFC
  3086                           tblptru	equ	0xFF8
  3087                           tblptrh	equ	0xFF7
  3088                           tblptrl	equ	0xFF6
  3089                           tablat	equ	0xFF5
  3090                           prodh	equ	0xFF4
  3091                           prodl	equ	0xFF3
  3092                           intcon	equ	0xFF2
  3093                           wreg	equ	0xFE8
  3094                           status	equ	0xFD8
  3095                           
  3096 ;; *************** function _OpenTimer2 *****************
  3097 ;; Defined at:
  3098 ;;		line 17 in file "C:\Program Files (x86)\Microchip\xc8\v1.33\sources\pic18\plib\Timers\t2open.c"
  3099 ;; Parameters:    Size  Location     Type
  3100 ;;  config          1    wreg     unsigned char 
  3101 ;; Auto vars:     Size  Location     Type
  3102 ;;  config          1   14[COMRAM] unsigned char 
  3103 ;; Return value:  Size  Location     Type
  3104 ;;		None               void
  3105 ;; Registers used:
  3106 ;;		wreg, status,2, status,0
  3107 ;; Tracked objects:
  3108 ;;		On entry : 0/0
  3109 ;;		On exit  : 0/0
  3110 ;;		Unchanged: 0/0
  3111 ;; Data sizes:     COMRAM   BANK0   BANK1   BANK2   BANK3   BANK4   BANK5   BANK6   BANK7   BANK8   BANK9  BANK10  BANK1
      +1  BANK12  BANK13  BANK14  BANK15
  3112 ;;      Params:         0       0       0       0       0       0       0       0       0       0       0       0       
      +0       0       0       0       0
  3113 ;;      Locals:         1       0       0       0       0       0       0       0       0       0       0       0       
      +0       0       0       0       0
  3114 ;;      Temps:          0       0       0       0       0       0       0       0       0       0       0       0       
      +0       0       0       0       0
  3115 ;;      Totals:         1       0       0       0       0       0       0       0       0       0       0       0       
      +0       0       0       0       0
  3116 ;;Total ram usage:        1 bytes
  3117 ;; Hardware stack levels used:    1
  3118 ;; Hardware stack levels required when called:    1
  3119 ;; This function calls:
  3120 ;;		Nothing
  3121 ;; This function is called by:
  3122 ;;		_initialization
  3123 ;; This function uses a non-reentrant model
  3124 ;;
  3125                           
  3126                           	psect	text33
  3127  0018DA                     __ptext33:
  3128                           	opt stack 0
  3129  0018DA                     _OpenTimer2:
  3130                           	opt stack 28
  3131                           
  3132                           ;incstack = 0
  3133                           ;OpenTimer2@config stored from wreg
  3134  0018DA  6E0F               	movwf	OpenTimer2@config,c
  3135  0018DC  500F               	movf	OpenTimer2@config,w,c
  3136  0018DE  0BFB               	andlw	251
  3137  0018E0  6ECA               	movwf	4042,c	;volatile
  3138  0018E2  0E00               	movlw	0
  3139  0018E4  6ECC               	movwf	4044,c	;volatile
  3140  0018E6  929E               	bcf	3998,1,c	;volatile
  3141  0018E8  AE0F               	btfss	OpenTimer2@config,7,c
  3142  0018EA  D002               	goto	l422
  3143  0018EC  829D               	bsf	3997,1,c	;volatile
  3144  0018EE  D001               	goto	l423
  3145  0018F0                     l422:
  3146  0018F0  929D               	bcf	3997,1,c	;volatile
  3147  0018F2                     l423:
  3148  0018F2  84CA               	bsf	4042,2,c	;volatile
  3149  0018F4  0012               	return	
  3150  0018F6                     __end_of_OpenTimer2:
  3151                           	opt stack 0
  3152                           stkptr	equ	0xFFC
  3153                           tblptru	equ	0xFF8
  3154                           tblptrh	equ	0xFF7
  3155                           tblptrl	equ	0xFF6
  3156                           tablat	equ	0xFF5
  3157                           prodh	equ	0xFF4
  3158                           prodl	equ	0xFF3
  3159                           intcon	equ	0xFF2
  3160                           wreg	equ	0xFE8
  3161                           status	equ	0xFD8
  3162                           
  3163 ;; *************** function _OpenPWM2 *****************
  3164 ;; Defined at:
  3165 ;;		line 18 in file "C:\Program Files (x86)\Microchip\xc8\v1.33\sources\pic18\plib\PWM\pw2open.c"
  3166 ;; Parameters:    Size  Location     Type
  3167 ;;  period          1    wreg     unsigned char 
  3168 ;; Auto vars:     Size  Location     Type
  3169 ;;  period          1   15[COMRAM] unsigned char 
  3170 ;;  ccp2mx          1   16[COMRAM] unsigned char 
  3171 ;;  pmmode          1    0        unsigned char 
  3172 ;; Return value:  Size  Location     Type
  3173 ;;		None               void
  3174 ;; Registers used:
  3175 ;;		wreg, status,2, tblptrl, tblptrh, tblptru
  3176 ;; Tracked objects:
  3177 ;;		On entry : 0/0
  3178 ;;		On exit  : 0/0
  3179 ;;		Unchanged: 0/0
  3180 ;; Data sizes:     COMRAM   BANK0   BANK1   BANK2   BANK3   BANK4   BANK5   BANK6   BANK7   BANK8   BANK9  BANK10  BANK1
      +1  BANK12  BANK13  BANK14  BANK15
  3181 ;;      Params:         0       0       0       0       0       0       0       0       0       0       0       0       
      +0       0       0       0       0
  3182 ;;      Locals:         2       0       0       0       0       0       0       0       0       0       0       0       
      +0       0       0       0       0
  3183 ;;      Temps:          1       0       0       0       0       0       0       0       0       0       0       0       
      +0       0       0       0       0
  3184 ;;      Totals:         3       0       0       0       0       0       0       0       0       0       0       0       
      +0       0       0       0       0
  3185 ;;Total ram usage:        3 bytes
  3186 ;; Hardware stack levels used:    1
  3187 ;; Hardware stack levels required when called:    1
  3188 ;; This function calls:
  3189 ;;		Nothing
  3190 ;; This function is called by:
  3191 ;;		_initialization
  3192 ;; This function uses a non-reentrant model
  3193 ;;
  3194                           
  3195                           	psect	text34
  3196  00161C                     __ptext34:
  3197                           	opt stack 0
  3198  00161C                     _OpenPWM2:
  3199                           	opt stack 28
  3200                           
  3201                           ;incstack = 0
  3202                           ;OpenPWM2@period stored from wreg
  3203  00161C  6E10               	movwf	OpenPWM2@period,c
  3204  00161E  0E0C               	movlw	12
  3205  001620  6EBA               	movwf	4026,c	;volatile
  3206  001622  0E05               	movlw	5
  3207  001624  6EF6               	movwf	tblptrl,c
  3208  001626                     	if	1	;There is more than 1 active tblptr byte
  3209  001626  0E00               	movlw	0
  3210  001628  6EF7               	movwf	tblptrh,c
  3211  00162A                     	endif
  3212  00162A                     	if	1	;There are 3 active tblptr bytes
  3213  00162A  0E30               	movlw	48
  3214  00162C  6EF8               	movwf	tblptru,c
  3215  00162E                     	endif
  3216  00162E  0008               	tblrd		*
  3217  001630  CFF5 F00F          	movff	tablat,??_OpenPWM2
  3218  001634  A00F               	btfss	??_OpenPWM2,0,c
  3219  001636  D002               	goto	l1484
  3220  001638  6811               	setf	OpenPWM2@ccp2mx,c
  3221  00163A  D002               	goto	l399
  3222  00163C                     l1484:
  3223  00163C  0E00               	movlw	0
  3224  00163E  6E11               	movwf	OpenPWM2@ccp2mx,c
  3225  001640                     l399:
  3226  001640  5011               	movf	OpenPWM2@ccp2mx,w,c
  3227  001642  B4D8               	btfsc	status,2,c
  3228  001644  D002               	goto	l400
  3229  001646  9294               	bcf	3988,1,c	;volatile
  3230  001648  D001               	goto	l401
  3231  00164A                     l400:
  3232  00164A  9693               	bcf	3987,3,c	;volatile
  3233  00164C                     l401:
  3234  00164C  94CA               	bcf	4042,2,c	;volatile
  3235  00164E  C010  FFCB         	movff	OpenPWM2@period,4043	;volatile
  3236  001652  84CA               	bsf	4042,2,c	;volatile
  3237  001654  0012               	return	
  3238  001656                     __end_of_OpenPWM2:
  3239                           	opt stack 0
  3240                           stkptr	equ	0xFFC
  3241                           tblptru	equ	0xFF8
  3242                           tblptrh	equ	0xFF7
  3243                           tblptrl	equ	0xFF6
  3244                           tablat	equ	0xFF5
  3245                           prodh	equ	0xFF4
  3246                           prodl	equ	0xFF3
  3247                           intcon	equ	0xFF2
  3248                           wreg	equ	0xFE8
  3249                           status	equ	0xFD8
  3250                           
  3251 ;; *************** function _OpenPWM1 *****************
  3252 ;; Defined at:
  3253 ;;		line 8 in file "C:\Program Files (x86)\Microchip\xc8\v1.33\sources\pic18\plib\PWM\pw1open.c"
  3254 ;; Parameters:    Size  Location     Type
  3255 ;;  period          1    wreg     unsigned char 
  3256 ;; Auto vars:     Size  Location     Type
  3257 ;;  period          1   14[COMRAM] unsigned char 
  3258 ;; Return value:  Size  Location     Type
  3259 ;;		None               void
  3260 ;; Registers used:
  3261 ;;		wreg, status,2, status,0
  3262 ;; Tracked objects:
  3263 ;;		On entry : 0/0
  3264 ;;		On exit  : 0/0
  3265 ;;		Unchanged: 0/0
  3266 ;; Data sizes:     COMRAM   BANK0   BANK1   BANK2   BANK3   BANK4   BANK5   BANK6   BANK7   BANK8   BANK9  BANK10  BANK1
      +1  BANK12  BANK13  BANK14  BANK15
  3267 ;;      Params:         0       0       0       0       0       0       0       0       0       0       0       0       
      +0       0       0       0       0
  3268 ;;      Locals:         1       0       0       0       0       0       0       0       0       0       0       0       
      +0       0       0       0       0
  3269 ;;      Temps:          0       0       0       0       0       0       0       0       0       0       0       0       
      +0       0       0       0       0
  3270 ;;      Totals:         1       0       0       0       0       0       0       0       0       0       0       0       
      +0       0       0       0       0
  3271 ;;Total ram usage:        1 bytes
  3272 ;; Hardware stack levels used:    1
  3273 ;; Hardware stack levels required when called:    1
  3274 ;; This function calls:
  3275 ;;		Nothing
  3276 ;; This function is called by:
  3277 ;;		_initialization
  3278 ;; This function uses a non-reentrant model
  3279 ;;
  3280                           
  3281                           	psect	text35
  3282  00194C                     __ptext35:
  3283                           	opt stack 0
  3284  00194C                     _OpenPWM1:
  3285                           	opt stack 28
  3286                           
  3287                           ;incstack = 0
  3288                           ;OpenPWM1@period stored from wreg
  3289  00194C  6E0F               	movwf	OpenPWM1@period,c
  3290  00194E  0E0C               	movlw	12
  3291  001950  12BD               	iorwf	4029,f,c	;volatile
  3292  001952  9494               	bcf	3988,2,c	;volatile
  3293  001954  94CA               	bcf	4042,2,c	;volatile
  3294  001956  C00F  FFCB         	movff	OpenPWM1@period,4043	;volatile
  3295  00195A  84CA               	bsf	4042,2,c	;volatile
  3296  00195C  0012               	return	
  3297  00195E                     __end_of_OpenPWM1:
  3298                           	opt stack 0
  3299                           stkptr	equ	0xFFC
  3300                           tblptru	equ	0xFF8
  3301                           tblptrh	equ	0xFF7
  3302                           tblptrl	equ	0xFF6
  3303                           tablat	equ	0xFF5
  3304                           prodh	equ	0xFF4
  3305                           prodl	equ	0xFF3
  3306                           intcon	equ	0xFF2
  3307                           wreg	equ	0xFE8
  3308                           status	equ	0xFD8
  3309                           
  3310 ;; *************** function _OpenADC *****************
  3311 ;; Defined at:
  3312 ;;		line 68 in file "C:\Program Files (x86)\Microchip\xc8\v1.33\sources\pic18\plib\ADC\adcopen.c"
  3313 ;; Parameters:    Size  Location     Type
  3314 ;;  config          1    wreg     unsigned char 
  3315 ;;  config2         1   14[COMRAM] unsigned char 
  3316 ;;  portconfig      1   15[COMRAM] unsigned char 
  3317 ;; Auto vars:     Size  Location     Type
  3318 ;;  config          1   18[COMRAM] unsigned char 
  3319 ;; Return value:  Size  Location     Type
  3320 ;;		None               void
  3321 ;; Registers used:
  3322 ;;		wreg, status,2, status,0
  3323 ;; Tracked objects:
  3324 ;;		On entry : 0/0
  3325 ;;		On exit  : 0/0
  3326 ;;		Unchanged: 0/0
  3327 ;; Data sizes:     COMRAM   BANK0   BANK1   BANK2   BANK3   BANK4   BANK5   BANK6   BANK7   BANK8   BANK9  BANK10  BANK1
      +1  BANK12  BANK13  BANK14  BANK15
  3328 ;;      Params:         2       0       0       0       0       0       0       0       0       0       0       0       
      +0       0       0       0       0
  3329 ;;      Locals:         1       0       0       0       0       0       0       0       0       0       0       0       
      +0       0       0       0       0
  3330 ;;      Temps:          2       0       0       0       0       0       0       0       0       0       0       0       
      +0       0       0       0       0
  3331 ;;      Totals:         5       0       0       0       0       0       0       0       0       0       0       0       
      +0       0       0       0       0
  3332 ;;Total ram usage:        5 bytes
  3333 ;; Hardware stack levels used:    1
  3334 ;; Hardware stack levels required when called:    1
  3335 ;; This function calls:
  3336 ;;		Nothing
  3337 ;; This function is called by:
  3338 ;;		_initialization
  3339 ;; This function uses a non-reentrant model
  3340 ;;
  3341                           
  3342                           	psect	text36
  3343  0014AC                     __ptext36:
  3344                           	opt stack 0
  3345  0014AC                     _OpenADC:
  3346                           	opt stack 28
  3347                           
  3348                           ;incstack = 0
  3349                           ;OpenADC@config stored from wreg
  3350  0014AC  6E13               	movwf	OpenADC@config,c
  3351  0014AE  0E00               	movlw	0
  3352  0014B0  6EC2               	movwf	4034,c	;volatile
  3353  0014B2  0E00               	movlw	0
  3354  0014B4  6EC0               	movwf	4032,c	;volatile
  3355  0014B6  90D8               	bcf	status,0,c
  3356  0014B8  300F               	rrcf	OpenADC@config2,w,c
  3357  0014BA  0B3C               	andlw	60
  3358  0014BC  6EC2               	movwf	4034,c	;volatile
  3359  0014BE  C00F  F011         	movff	OpenADC@config2,??_OpenADC
  3360  0014C2  3A11               	swapf	??_OpenADC,f,c
  3361  0014C4  0EF0               	movlw	240
  3362  0014C6  1611               	andwf	??_OpenADC,f,c
  3363  0014C8  0E30               	movlw	48
  3364  0014CA  1611               	andwf	??_OpenADC,f,c
  3365  0014CC  5010               	movf	OpenADC@portconfig,w,c
  3366  0014CE  0B0F               	andlw	15
  3367  0014D0  1011               	iorwf	??_OpenADC,w,c
  3368  0014D2  6EC1               	movwf	4033,c	;volatile
  3369  0014D4  C013  F011         	movff	OpenADC@config,??_OpenADC
  3370  0014D8  90D8               	bcf	status,0,c
  3371  0014DA  3611               	rlcf	??_OpenADC,f,c
  3372  0014DC  90D8               	bcf	status,0,c
  3373  0014DE  3611               	rlcf	??_OpenADC,f,c
  3374  0014E0  0E38               	movlw	56
  3375  0014E2  1611               	andwf	??_OpenADC,f,c
  3376  0014E4  C013  F012         	movff	OpenADC@config,??_OpenADC+1
  3377  0014E8  3A12               	swapf	??_OpenADC+1,f,c
  3378  0014EA  0E0F               	movlw	15
  3379  0014EC  1612               	andwf	??_OpenADC+1,f,c
  3380  0014EE  0E07               	movlw	7
  3381  0014F0  1612               	andwf	??_OpenADC+1,f,c
  3382  0014F2  5013               	movf	OpenADC@config,w,c
  3383  0014F4  0B80               	andlw	128
  3384  0014F6  1012               	iorwf	??_OpenADC+1,w,c
  3385  0014F8  1011               	iorwf	??_OpenADC,w,c
  3386  0014FA  6EC0               	movwf	4032,c	;volatile
  3387  0014FC  AE0F               	btfss	OpenADC@config2,7,c
  3388  0014FE  D003               	goto	l351
  3389  001500  9C9E               	bcf	3998,6,c	;volatile
  3390  001502  8C9D               	bsf	3997,6,c	;volatile
  3391  001504  8CF2               	bsf	intcon,6,c	;volatile
  3392  001506                     l351:
  3393  001506  80C2               	bsf	4034,0,c	;volatile
  3394  001508  0012               	return	
  3395  00150A                     __end_of_OpenADC:
  3396                           	opt stack 0
  3397                           stkptr	equ	0xFFC
  3398                           tblptru	equ	0xFF8
  3399                           tblptrh	equ	0xFF7
  3400                           tblptrl	equ	0xFF6
  3401                           tablat	equ	0xFF5
  3402                           prodh	equ	0xFF4
  3403                           prodl	equ	0xFF3
  3404                           intcon	equ	0xFF2
  3405                           wreg	equ	0xFE8
  3406                           status	equ	0xFD8
  3407                           
  3408 ;; *************** function _check_sensors *****************
  3409 ;; Defined at:
  3410 ;;		line 241 in file "../sumovore.c"
  3411 ;; Parameters:    Size  Location     Type
  3412 ;;		None
  3413 ;; Auto vars:     Size  Location     Type
  3414 ;;		None
  3415 ;; Return value:  Size  Location     Type
  3416 ;;		None               void
  3417 ;; Registers used:
  3418 ;;		wreg, status,2, status,0, cstack
  3419 ;; Tracked objects:
  3420 ;;		On entry : 0/0
  3421 ;;		On exit  : 0/0
  3422 ;;		Unchanged: 0/0
  3423 ;; Data sizes:     COMRAM   BANK0   BANK1   BANK2   BANK3   BANK4   BANK5   BANK6   BANK7   BANK8   BANK9  BANK10  BANK1
      +1  BANK12  BANK13  BANK14  BANK15
  3424 ;;      Params:         0       0       0       0       0       0       0       0       0       0       0       0       
      +0       0       0       0       0
  3425 ;;      Locals:         0       0       0       0       0       0       0       0       0       0       0       0       
      +0       0       0       0       0
  3426 ;;      Temps:          1       0       0       0       0       0       0       0       0       0       0       0       
      +0       0       0       0       0
  3427 ;;      Totals:         1       0       0       0       0       0       0       0       0       0       0       0       
      +0       0       0       0       0
  3428 ;;Total ram usage:        1 bytes
  3429 ;; Hardware stack levels used:    1
  3430 ;; Hardware stack levels required when called:    3
  3431 ;; This function calls:
  3432 ;;		_adc
  3433 ;; This function is called by:
  3434 ;;		_main
  3435 ;; This function uses a non-reentrant model
  3436 ;;
  3437                           
  3438                           	psect	text37
  3439  00114A                     __ptext37:
  3440                           	opt stack 0
  3441  00114A                     _check_sensors:
  3442                           	opt stack 27
  3443                           
  3444                           ;sumovore.c: 243: SeeLine.b.Left = ( adc(0b10000111) > threshold );
  3445                           
  3446                           ;incstack = 0
  3447  00114A  0E87               	movlw	135
  3448  00114C  ECFF  F00B         	call	_adc
  3449  001150  5011               	movf	?_adc,w,c
  3450  001152  5C1E               	subwf	_threshold,w,c
  3451  001154  5012               	movf	?_adc+1,w,c
  3452  001156  581F               	subwfb	_threshold+1,w,c
  3453  001158  B0D8               	btfsc	status,0,c
  3454  00115A  D002               	goto	u530
  3455  00115C  0E01               	movlw	1
  3456  00115E  D001               	goto	u536
  3457  001160                     u530:
  3458  001160  0E00               	movlw	0
  3459  001162                     u536:
  3460  001162  6E14               	movwf	??_check_sensors& (0+255),c
  3461  001164  3A14               	swapf	??_check_sensors,f,c
  3462  001166  5020               	movf	_SeeLine,w,c
  3463  001168  1814               	xorwf	??_check_sensors,w,c
  3464  00116A  0BEF               	andlw	-17
  3465  00116C  1814               	xorwf	??_check_sensors,w,c
  3466  00116E  6E20               	movwf	_SeeLine,c
  3467                           
  3468                           ;sumovore.c: 244: SeeLine.b.CntLeft = ( adc(0b10001111) > threshold );
  3469  001170  0E8F               	movlw	143
  3470  001172  ECFF  F00B         	call	_adc
  3471  001176  5011               	movf	?_adc,w,c
  3472  001178  5C1E               	subwf	_threshold,w,c
  3473  00117A  5012               	movf	?_adc+1,w,c
  3474  00117C  581F               	subwfb	_threshold+1,w,c
  3475  00117E  B0D8               	btfsc	status,0,c
  3476  001180  D002               	goto	u540
  3477  001182  0E01               	movlw	1
  3478  001184  D001               	goto	u546
  3479  001186                     u540:
  3480  001186  0E00               	movlw	0
  3481  001188                     u546:
  3482  001188  6E14               	movwf	??_check_sensors& (0+255),c
  3483  00118A  4614               	rlncf	??_check_sensors,f,c
  3484  00118C  4614               	rlncf	??_check_sensors,f,c
  3485  00118E  4614               	rlncf	??_check_sensors,f,c
  3486  001190  5020               	movf	_SeeLine,w,c
  3487  001192  1814               	xorwf	??_check_sensors,w,c
  3488  001194  0BF7               	andlw	-9
  3489  001196  1814               	xorwf	??_check_sensors,w,c
  3490  001198  6E20               	movwf	_SeeLine,c
  3491                           
  3492                           ;sumovore.c: 245: SeeLine.b.Center = ( adc(0b10010111) > threshold );
  3493  00119A  0E97               	movlw	151
  3494  00119C  ECFF  F00B         	call	_adc
  3495  0011A0  5011               	movf	?_adc,w,c
  3496  0011A2  5C1E               	subwf	_threshold,w,c
  3497  0011A4  5012               	movf	?_adc+1,w,c
  3498  0011A6  581F               	subwfb	_threshold+1,w,c
  3499  0011A8  B0D8               	btfsc	status,0,c
  3500  0011AA  D002               	goto	u550
  3501  0011AC  0E01               	movlw	1
  3502  0011AE  D001               	goto	u556
  3503  0011B0                     u550:
  3504  0011B0  0E00               	movlw	0
  3505  0011B2                     u556:
  3506  0011B2  6E14               	movwf	??_check_sensors& (0+255),c
  3507  0011B4  4614               	rlncf	??_check_sensors,f,c
  3508  0011B6  4614               	rlncf	??_check_sensors,f,c
  3509  0011B8  5020               	movf	_SeeLine,w,c
  3510  0011BA  1814               	xorwf	??_check_sensors,w,c
  3511  0011BC  0BFB               	andlw	-5
  3512  0011BE  1814               	xorwf	??_check_sensors,w,c
  3513  0011C0  6E20               	movwf	_SeeLine,c
  3514                           
  3515                           ;sumovore.c: 246: SeeLine.b.CntRight = ( adc(0b10011111) > threshold );
  3516  0011C2  0E9F               	movlw	159
  3517  0011C4  ECFF  F00B         	call	_adc
  3518  0011C8  5011               	movf	?_adc,w,c
  3519  0011CA  5C1E               	subwf	_threshold,w,c
  3520  0011CC  5012               	movf	?_adc+1,w,c
  3521  0011CE  581F               	subwfb	_threshold+1,w,c
  3522  0011D0  B0D8               	btfsc	status,0,c
  3523  0011D2  D002               	goto	u560
  3524  0011D4  0E01               	movlw	1
  3525  0011D6  D001               	goto	u566
  3526  0011D8                     u560:
  3527  0011D8  0E00               	movlw	0
  3528  0011DA                     u566:
  3529  0011DA  6E14               	movwf	??_check_sensors& (0+255),c
  3530  0011DC  4614               	rlncf	??_check_sensors,f,c
  3531  0011DE  5020               	movf	_SeeLine,w,c
  3532  0011E0  1814               	xorwf	??_check_sensors,w,c
  3533  0011E2  0BFD               	andlw	-3
  3534  0011E4  1814               	xorwf	??_check_sensors,w,c
  3535  0011E6  6E20               	movwf	_SeeLine,c
  3536                           
  3537                           ;sumovore.c: 247: SeeLine.b.Right = ( adc(0b10100111) > threshold );
  3538  0011E8  0EA7               	movlw	167
  3539  0011EA  ECFF  F00B         	call	_adc
  3540  0011EE  5011               	movf	?_adc,w,c
  3541  0011F0  5C1E               	subwf	_threshold,w,c
  3542  0011F2  5012               	movf	?_adc+1,w,c
  3543  0011F4  581F               	subwfb	_threshold+1,w,c
  3544  0011F6  B0D8               	btfsc	status,0,c
  3545  0011F8  D002               	goto	u570
  3546  0011FA  0E01               	movlw	1
  3547  0011FC  D001               	goto	u576
  3548  0011FE                     u570:
  3549  0011FE  0E00               	movlw	0
  3550  001200                     u576:
  3551  001200  6E14               	movwf	??_check_sensors& (0+255),c
  3552  001202  5020               	movf	_SeeLine,w,c
  3553  001204  1814               	xorwf	??_check_sensors,w,c
  3554  001206  0BFE               	andlw	-2
  3555  001208  1814               	xorwf	??_check_sensors,w,c
  3556  00120A  6E20               	movwf	_SeeLine,c
  3557  00120C  0012               	return	
  3558  00120E                     __end_of_check_sensors:
  3559                           	opt stack 0
  3560                           stkptr	equ	0xFFC
  3561                           tblptru	equ	0xFF8
  3562                           tblptrh	equ	0xFF7
  3563                           tblptrl	equ	0xFF6
  3564                           tablat	equ	0xFF5
  3565                           prodh	equ	0xFF4
  3566                           prodl	equ	0xFF3
  3567                           intcon	equ	0xFF2
  3568                           wreg	equ	0xFE8
  3569                           status	equ	0xFD8
  3570                           
  3571 ;; *************** function _adc *****************
  3572 ;; Defined at:
  3573 ;;		line 229 in file "../sumovore.c"
  3574 ;; Parameters:    Size  Location     Type
  3575 ;;  channel         1    wreg     unsigned char 
  3576 ;; Auto vars:     Size  Location     Type
  3577 ;;  channel         1   18[COMRAM] unsigned char 
  3578 ;; Return value:  Size  Location     Type
  3579 ;;                  2   16[COMRAM] unsigned int 
  3580 ;; Registers used:
  3581 ;;		wreg, status,2, status,0, cstack
  3582 ;; Tracked objects:
  3583 ;;		On entry : 0/0
  3584 ;;		On exit  : 0/0
  3585 ;;		Unchanged: 0/0
  3586 ;; Data sizes:     COMRAM   BANK0   BANK1   BANK2   BANK3   BANK4   BANK5   BANK6   BANK7   BANK8   BANK9  BANK10  BANK1
      +1  BANK12  BANK13  BANK14  BANK15
  3587 ;;      Params:         2       0       0       0       0       0       0       0       0       0       0       0       
      +0       0       0       0       0
  3588 ;;      Locals:         1       0       0       0       0       0       0       0       0       0       0       0       
      +0       0       0       0       0
  3589 ;;      Temps:          0       0       0       0       0       0       0       0       0       0       0       0       
      +0       0       0       0       0
  3590 ;;      Totals:         3       0       0       0       0       0       0       0       0       0       0       0       
      +0       0       0       0       0
  3591 ;;Total ram usage:        3 bytes
  3592 ;; Hardware stack levels used:    1
  3593 ;; Hardware stack levels required when called:    2
  3594 ;; This function calls:
  3595 ;;		_BusyADC
  3596 ;;		_ConvertADC
  3597 ;;		_ReadADC
  3598 ;;		_SetChanADC
  3599 ;; This function is called by:
  3600 ;;		_check_sensors
  3601 ;; This function uses a non-reentrant model
  3602 ;;
  3603                           
  3604                           	psect	text38
  3605  0017FE                     __ptext38:
  3606                           	opt stack 0
  3607  0017FE                     _adc:
  3608                           	opt stack 27
  3609                           
  3610                           ;incstack = 0
  3611                           ;adc@channel stored from wreg
  3612  0017FE  6E13               	movwf	adc@channel,c
  3613                           
  3614                           ;sumovore.c: 231: SetChanADC( channel );
  3615  001800  5013               	movf	adc@channel,w,c
  3616  001802  EC87  F00C         	call	_SetChanADC
  3617                           
  3618                           ;sumovore.c: 232: ConvertADC();
  3619  001806  ECE3  F00C         	call	_ConvertADC	;wreg free
  3620  00180A                     l1492:
  3621  00180A  ECC4  F00C         	call	_BusyADC	;wreg free
  3622  00180E  0900               	iorlw	0
  3623  001810  A4D8               	btfss	status,2,c
  3624  001812  D7FB               	goto	l1492
  3625                           
  3626                           ;sumovore.c: 235: return ReadADC();
  3627  001814  ECCA  F00C         	call	_ReadADC	;wreg free
  3628  001818  C00F  F011         	movff	?_ReadADC,?_adc
  3629  00181C  C010  F012         	movff	?_ReadADC+1,?_adc+1
  3630  001820  0012               	return	
  3631  001822                     __end_of_adc:
  3632                           	opt stack 0
  3633                           stkptr	equ	0xFFC
  3634                           tblptru	equ	0xFF8
  3635                           tblptrh	equ	0xFF7
  3636                           tblptrl	equ	0xFF6
  3637                           tablat	equ	0xFF5
  3638                           prodh	equ	0xFF4
  3639                           prodl	equ	0xFF3
  3640                           intcon	equ	0xFF2
  3641                           wreg	equ	0xFE8
  3642                           status	equ	0xFD8
  3643                           
  3644 ;; *************** function _SetChanADC *****************
  3645 ;; Defined at:
  3646 ;;		line 30 in file "C:\Program Files (x86)\Microchip\xc8\v1.33\sources\pic18\plib\ADC\adcsetch.c"
  3647 ;; Parameters:    Size  Location     Type
  3648 ;;  channel         1    wreg     unsigned char 
  3649 ;; Auto vars:     Size  Location     Type
  3650 ;;  channel         1   15[COMRAM] unsigned char 
  3651 ;; Return value:  Size  Location     Type
  3652 ;;		None               void
  3653 ;; Registers used:
  3654 ;;		wreg, status,2, status,0
  3655 ;; Tracked objects:
  3656 ;;		On entry : 0/0
  3657 ;;		On exit  : 0/0
  3658 ;;		Unchanged: 0/0
  3659 ;; Data sizes:     COMRAM   BANK0   BANK1   BANK2   BANK3   BANK4   BANK5   BANK6   BANK7   BANK8   BANK9  BANK10  BANK1
      +1  BANK12  BANK13  BANK14  BANK15
  3660 ;;      Params:         0       0       0       0       0       0       0       0       0       0       0       0       
      +0       0       0       0       0
  3661 ;;      Locals:         1       0       0       0       0       0       0       0       0       0       0       0       
      +0       0       0       0       0
  3662 ;;      Temps:          1       0       0       0       0       0       0       0       0       0       0       0       
      +0       0       0       0       0
  3663 ;;      Totals:         2       0       0       0       0       0       0       0       0       0       0       0       
      +0       0       0       0       0
  3664 ;;Total ram usage:        2 bytes
  3665 ;; Hardware stack levels used:    1
  3666 ;; Hardware stack levels required when called:    1
  3667 ;; This function calls:
  3668 ;;		Nothing
  3669 ;; This function is called by:
  3670 ;;		_adc
  3671 ;; This function uses a non-reentrant model
  3672 ;;
  3673                           
  3674                           	psect	text39
  3675  00190E                     __ptext39:
  3676                           	opt stack 0
  3677  00190E                     _SetChanADC:
  3678                           	opt stack 27
  3679                           
  3680                           ;incstack = 0
  3681                           ;SetChanADC@channel stored from wreg
  3682  00190E  6E10               	movwf	SetChanADC@channel,c
  3683  001910  CFC2 F00F          	movff	4034,??_SetChanADC	;volatile
  3684  001914  0EC3               	movlw	195
  3685  001916  160F               	andwf	??_SetChanADC,f,c
  3686  001918  90D8               	bcf	status,0,c
  3687  00191A  3010               	rrcf	SetChanADC@channel,w,c
  3688  00191C  0B3C               	andlw	60
  3689  00191E  100F               	iorwf	??_SetChanADC,w,c
  3690  001920  6EC2               	movwf	4034,c	;volatile
  3691  001922  0012               	return	
  3692  001924                     __end_of_SetChanADC:
  3693                           	opt stack 0
  3694                           stkptr	equ	0xFFC
  3695                           tblptru	equ	0xFF8
  3696                           tblptrh	equ	0xFF7
  3697                           tblptrl	equ	0xFF6
  3698                           tablat	equ	0xFF5
  3699                           prodh	equ	0xFF4
  3700                           prodl	equ	0xFF3
  3701                           intcon	equ	0xFF2
  3702                           wreg	equ	0xFE8
  3703                           status	equ	0xFD8
  3704                           
  3705 ;; *************** function _ReadADC *****************
  3706 ;; Defined at:
  3707 ;;		line 24 in file "C:\Program Files (x86)\Microchip\xc8\v1.33\sources\pic18\plib\ADC\adcread.c"
  3708 ;; Parameters:    Size  Location     Type
  3709 ;;		None
  3710 ;; Auto vars:     Size  Location     Type
  3711 ;;		None
  3712 ;; Return value:  Size  Location     Type
  3713 ;;                  2   14[COMRAM] int 
  3714 ;; Registers used:
  3715 ;;		wreg, status,2
  3716 ;; Tracked objects:
  3717 ;;		On entry : 0/0
  3718 ;;		On exit  : 0/0
  3719 ;;		Unchanged: 0/0
  3720 ;; Data sizes:     COMRAM   BANK0   BANK1   BANK2   BANK3   BANK4   BANK5   BANK6   BANK7   BANK8   BANK9  BANK10  BANK1
      +1  BANK12  BANK13  BANK14  BANK15
  3721 ;;      Params:         2       0       0       0       0       0       0       0       0       0       0       0       
      +0       0       0       0       0
  3722 ;;      Locals:         0       0       0       0       0       0       0       0       0       0       0       0       
      +0       0       0       0       0
  3723 ;;      Temps:          0       0       0       0       0       0       0       0       0       0       0       0       
      +0       0       0       0       0
  3724 ;;      Totals:         2       0       0       0       0       0       0       0       0       0       0       0       
      +0       0       0       0       0
  3725 ;;Total ram usage:        2 bytes
  3726 ;; Hardware stack levels used:    1
  3727 ;; Hardware stack levels required when called:    1
  3728 ;; This function calls:
  3729 ;;		Nothing
  3730 ;; This function is called by:
  3731 ;;		_adc
  3732 ;; This function uses a non-reentrant model
  3733 ;;
  3734                           
  3735                           	psect	text40
  3736  001994                     __ptext40:
  3737                           	opt stack 0
  3738  001994                     _ReadADC:
  3739                           	opt stack 27
  3740                           
  3741                           ;incstack = 0
  3742  001994  50C4               	movf	4036,w,c	;volatile
  3743  001996  6E10               	movwf	?_ReadADC+1,c
  3744  001998  50C3               	movf	4035,w,c	;volatile
  3745  00199A  6E0F               	movwf	?_ReadADC,c
  3746  00199C  0012               	return	
  3747  00199E                     __end_of_ReadADC:
  3748                           	opt stack 0
  3749                           stkptr	equ	0xFFC
  3750                           tblptru	equ	0xFF8
  3751                           tblptrh	equ	0xFF7
  3752                           tblptrl	equ	0xFF6
  3753                           tablat	equ	0xFF5
  3754                           prodh	equ	0xFF4
  3755                           prodl	equ	0xFF3
  3756                           intcon	equ	0xFF2
  3757                           wreg	equ	0xFE8
  3758                           status	equ	0xFD8
  3759                           
  3760 ;; *************** function _ConvertADC *****************
  3761 ;; Defined at:
  3762 ;;		line 22 in file "C:\Program Files (x86)\Microchip\xc8\v1.33\sources\pic18\plib\ADC\adcconv.c"
  3763 ;; Parameters:    Size  Location     Type
  3764 ;;		None
  3765 ;; Auto vars:     Size  Location     Type
  3766 ;;		None
  3767 ;; Return value:  Size  Location     Type
  3768 ;;		None               void
  3769 ;; Registers used:
  3770 ;;		None
  3771 ;; Tracked objects:
  3772 ;;		On entry : 0/0
  3773 ;;		On exit  : 0/0
  3774 ;;		Unchanged: 0/0
  3775 ;; Data sizes:     COMRAM   BANK0   BANK1   BANK2   BANK3   BANK4   BANK5   BANK6   BANK7   BANK8   BANK9  BANK10  BANK1
      +1  BANK12  BANK13  BANK14  BANK15
  3776 ;;      Params:         0       0       0       0       0       0       0       0       0       0       0       0       
      +0       0       0       0       0
  3777 ;;      Locals:         0       0       0       0       0       0       0       0       0       0       0       0       
      +0       0       0       0       0
  3778 ;;      Temps:          0       0       0       0       0       0       0       0       0       0       0       0       
      +0       0       0       0       0
  3779 ;;      Totals:         0       0       0       0       0       0       0       0       0       0       0       0       
      +0       0       0       0       0
  3780 ;;Total ram usage:        0 bytes
  3781 ;; Hardware stack levels used:    1
  3782 ;; Hardware stack levels required when called:    1
  3783 ;; This function calls:
  3784 ;;		Nothing
  3785 ;; This function is called by:
  3786 ;;		_adc
  3787 ;; This function uses a non-reentrant model
  3788 ;;
  3789                           
  3790                           	psect	text41
  3791  0019C6                     __ptext41:
  3792                           	opt stack 0
  3793  0019C6                     _ConvertADC:
  3794                           	opt stack 27
  3795                           
  3796                           ;incstack = 0
  3797  0019C6  82C2               	bsf	4034,1,c	;volatile
  3798  0019C8  0012               	return	
  3799  0019CA                     __end_of_ConvertADC:
  3800                           	opt stack 0
  3801                           stkptr	equ	0xFFC
  3802                           tblptru	equ	0xFF8
  3803                           tblptrh	equ	0xFF7
  3804                           tblptrl	equ	0xFF6
  3805                           tablat	equ	0xFF5
  3806                           prodh	equ	0xFF4
  3807                           prodl	equ	0xFF3
  3808                           intcon	equ	0xFF2
  3809                           wreg	equ	0xFE8
  3810                           status	equ	0xFD8
  3811                           
  3812 ;; *************** function _BusyADC *****************
  3813 ;; Defined at:
  3814 ;;		line 26 in file "C:\Program Files (x86)\Microchip\xc8\v1.33\sources\pic18\plib\ADC\adcbusy.c"
  3815 ;; Parameters:    Size  Location     Type
  3816 ;;		None
  3817 ;; Auto vars:     Size  Location     Type
  3818 ;;		None
  3819 ;; Return value:  Size  Location     Type
  3820 ;;                  1    wreg      unsigned char 
  3821 ;; Registers used:
  3822 ;;		wreg
  3823 ;; Tracked objects:
  3824 ;;		On entry : 0/0
  3825 ;;		On exit  : 0/0
  3826 ;;		Unchanged: 0/0
  3827 ;; Data sizes:     COMRAM   BANK0   BANK1   BANK2   BANK3   BANK4   BANK5   BANK6   BANK7   BANK8   BANK9  BANK10  BANK1
      +1  BANK12  BANK13  BANK14  BANK15
  3828 ;;      Params:         0       0       0       0       0       0       0       0       0       0       0       0       
      +0       0       0       0       0
  3829 ;;      Locals:         0       0       0       0       0       0       0       0       0       0       0       0       
      +0       0       0       0       0
  3830 ;;      Temps:          0       0       0       0       0       0       0       0       0       0       0       0       
      +0       0       0       0       0
  3831 ;;      Totals:         0       0       0       0       0       0       0       0       0       0       0       0       
      +0       0       0       0       0
  3832 ;;Total ram usage:        0 bytes
  3833 ;; Hardware stack levels used:    1
  3834 ;; Hardware stack levels required when called:    1
  3835 ;; This function calls:
  3836 ;;		Nothing
  3837 ;; This function is called by:
  3838 ;;		_adc
  3839 ;; This function uses a non-reentrant model
  3840 ;;
  3841                           
  3842                           	psect	text42
  3843  001988                     __ptext42:
  3844                           	opt stack 0
  3845  001988                     _BusyADC:
  3846                           	opt stack 27
  3847                           
  3848                           ;incstack = 0
  3849  001988  A2C2               	btfss	4034,1,c	;volatile
  3850  00198A  D002               	goto	u130
  3851  00198C  0E01               	movlw	1
  3852  00198E  D001               	goto	l329
  3853  001990                     u130:
  3854  001990  0E00               	movlw	0
  3855  001992                     l329:
  3856  001992  0012               	return	
  3857  001994                     __end_of_BusyADC:
  3858                           	opt stack 0
  3859                           stkptr	equ	0xFFC
  3860                           tblptru	equ	0xFF8
  3861                           tblptrh	equ	0xFF7
  3862                           tblptrl	equ	0xFF6
  3863                           tablat	equ	0xFF5
  3864                           prodh	equ	0xFF4
  3865                           prodl	equ	0xFF3
  3866                           intcon	equ	0xFF2
  3867                           wreg	equ	0xFE8
  3868                           status	equ	0xFD8
  3869                           
  3870 ;; *************** function _LVtrap *****************
  3871 ;; Defined at:
  3872 ;;		line 448 in file "../sumovore.c"
  3873 ;; Parameters:    Size  Location     Type
  3874 ;;		None
  3875 ;; Auto vars:     Size  Location     Type
  3876 ;;		None
  3877 ;; Return value:  Size  Location     Type
  3878 ;;		None               void
  3879 ;; Registers used:
  3880 ;;		wreg, status,2, status,0, tblptrl, tblptrh, tblptru, cstack
  3881 ;; Tracked objects:
  3882 ;;		On entry : 0/0
  3883 ;;		On exit  : 0/0
  3884 ;;		Unchanged: 0/0
  3885 ;; Data sizes:     COMRAM   BANK0   BANK1   BANK2   BANK3   BANK4   BANK5   BANK6   BANK7   BANK8   BANK9  BANK10  BANK1
      +1  BANK12  BANK13  BANK14  BANK15
  3886 ;;      Params:         0       0       0       0       0       0       0       0       0       0       0       0       
      +0       0       0       0       0
  3887 ;;      Locals:         0       0       0       0       0       0       0       0       0       0       0       0       
      +0       0       0       0       0
  3888 ;;      Temps:          0       0       0       0       0       0       0       0       0       0       0       0       
      +0       0       0       0       0
  3889 ;;      Totals:         0       0       0       0       0       0       0       0       0       0       0       0       
      +0       0       0       0       0
  3890 ;;Total ram usage:        0 bytes
  3891 ;; Hardware stack levels used:    1
  3892 ;; Hardware stack levels required when called:    3
  3893 ;; This function calls:
  3894 ;;		_gtrap
  3895 ;;		_openPORTD
  3896 ;;		_printf
  3897 ;; This function is called by:
  3898 ;;		_main
  3899 ;; This function uses a non-reentrant model
  3900 ;;
  3901                           
  3902                           	psect	text43
  3903  001864                     __ptext43:
  3904                           	opt stack 0
  3905  001864                     _LVtrap:
  3906                           	opt stack 27
  3907                           
  3908                           ;sumovore.c: 450: printf("\\<LVD>");
  3909                           
  3910                           ;incstack = 0
  3911  001864  0E10               	movlw	high STR_7
  3912  001866  6E10               	movwf	printf@f+1,c
  3913  001868  0E6B               	movlw	low STR_7
  3914  00186A  6E0F               	movwf	printf@f,c
  3915  00186C  EC77  F00B         	call	_printf	;wreg free
  3916                           
  3917                           ;sumovore.c: 451: openPORTD();
  3918  001870  ECDE  F00C         	call	_openPORTD	;wreg free
  3919                           
  3920                           ;sumovore.c: 452: PORTDbits.RD0=!1;
  3921  001874  9083               	bcf	3971,0,c	;volatile
  3922                           
  3923                           ;sumovore.c: 453: PORTDbits.RD1=!0;
  3924  001876  8283               	bsf	3971,1,c	;volatile
  3925                           
  3926                           ;sumovore.c: 454: PORTDbits.RD2=!0;
  3927  001878  8483               	bsf	3971,2,c	;volatile
  3928                           
  3929                           ;sumovore.c: 455: PORTDbits.RD3=!1;
  3930  00187A  9683               	bcf	3971,3,c	;volatile
  3931                           
  3932                           ;sumovore.c: 456: PORTDbits.RD4=!0;
  3933  00187C  8883               	bsf	3971,4,c	;volatile
  3934                           
  3935                           ;sumovore.c: 457: gtrap();
  3936  00187E  EC85  F00A         	call	_gtrap	;wreg free
  3937  001882  0012               	return	
  3938  001884                     __end_of_LVtrap:
  3939                           	opt stack 0
  3940                           stkptr	equ	0xFFC
  3941                           tblptru	equ	0xFF8
  3942                           tblptrh	equ	0xFF7
  3943                           tblptrl	equ	0xFF6
  3944                           tablat	equ	0xFF5
  3945                           prodh	equ	0xFF4
  3946                           prodl	equ	0xFF3
  3947                           intcon	equ	0xFF2
  3948                           wreg	equ	0xFE8
  3949                           status	equ	0xFD8
  3950                           
  3951 ;; *************** function _printf *****************
  3952 ;; Defined at:
  3953 ;;		line 464 in file "C:\Program Files (x86)\Microchip\xc8\v1.33\sources\common\doprnt.c"
  3954 ;; Parameters:    Size  Location     Type
  3955 ;;  f               2   14[COMRAM] PTR const unsigned char 
  3956 ;;		 -> STR_7(7), STR_6(10), STR_5(9), STR_4(9), 
  3957 ;;		 -> STR_3(6), STR_2(6), STR_1(64), 
  3958 ;; Auto vars:     Size  Location     Type
  3959 ;;  _val            5    0        struct .
  3960 ;;  ap              2   16[COMRAM] PTR void [1]
  3961 ;;		 -> ?_printf(2), 
  3962 ;;  c               1   18[COMRAM] char 
  3963 ;;  flag            1    0        unsigned char 
  3964 ;;  prec            1    0        char 
  3965 ;; Return value:  Size  Location     Type
  3966 ;;                  2   14[COMRAM] int 
  3967 ;; Registers used:
  3968 ;;		wreg, status,2, status,0, tblptrl, tblptrh, tblptru, cstack
  3969 ;; Tracked objects:
  3970 ;;		On entry : 0/0
  3971 ;;		On exit  : 0/0
  3972 ;;		Unchanged: 0/0
  3973 ;; Data sizes:     COMRAM   BANK0   BANK1   BANK2   BANK3   BANK4   BANK5   BANK6   BANK7   BANK8   BANK9  BANK10  BANK1
      +1  BANK12  BANK13  BANK14  BANK15
  3974 ;;      Params:         2       0       0       0       0       0       0       0       0       0       0       0       
      +0       0       0       0       0
  3975 ;;      Locals:         3       0       0       0       0       0       0       0       0       0       0       0       
      +0       0       0       0       0
  3976 ;;      Temps:          0       0       0       0       0       0       0       0       0       0       0       0       
      +0       0       0       0       0
  3977 ;;      Totals:         5       0       0       0       0       0       0       0       0       0       0       0       
      +0       0       0       0       0
  3978 ;;Total ram usage:        5 bytes
  3979 ;; Hardware stack levels used:    1
  3980 ;; Hardware stack levels required when called:    2
  3981 ;; This function calls:
  3982 ;;		_putch
  3983 ;; This function is called by:
  3984 ;;		_main
  3985 ;;		_PORtask
  3986 ;;		_BORtask
  3987 ;;		_WDTtask
  3988 ;;		_STKFULtask
  3989 ;;		_RESETtask
  3990 ;;		_LVtrap
  3991 ;; This function uses a non-reentrant model
  3992 ;;
  3993                           
  3994                           	psect	text44
  3995  0016EE                     __ptext44:
  3996                           	opt stack 0
  3997  0016EE                     _printf:
  3998                           	opt stack 28
  3999                           
  4000                           ;doprnt.c: 466: va_list ap;
  4001                           ;doprnt.c: 499: signed char c;
  4002                           ;doprnt.c: 506: signed char prec;
  4003                           ;doprnt.c: 508: unsigned char flag;
  4004                           ;doprnt.c: 527: union {
  4005                           ;doprnt.c: 528: unsigned int _val;
  4006                           ;doprnt.c: 529: struct {
  4007                           ;doprnt.c: 530: const char * _cp;
  4008                           ;doprnt.c: 531: unsigned _len;
  4009                           ;doprnt.c: 532: } _str;
  4010                           ;doprnt.c: 533: } _val;
  4011                           ;doprnt.c: 542: *ap = __va_start();
  4012                           
  4013                           ;incstack = 0
  4014  0016EE  0E00               	movlw	high (?_printf+2)
  4015  0016F0  6E12               	movwf	printf@ap+1,c
  4016  0016F2  0E11               	movlw	low (?_printf+2)
  4017  0016F4  6E11               	movwf	printf@ap,c
  4018                           
  4019                           ;doprnt.c: 545: while(c = *f++) {
  4020  0016F6  D003               	goto	l1094
  4021  0016F8                     l1092:
  4022                           
  4023                           ;doprnt.c: 549: {
  4024                           ;doprnt.c: 550: (putch(c) );
  4025  0016F8  5013               	movf	printf@c,w,c
  4026  0016FA  ECE5  F00C         	call	_putch
  4027  0016FE                     l1094:
  4028  0016FE  C00F  FFF6         	movff	printf@f,tblptrl
  4029  001702  C010  FFF7         	movff	printf@f+1,tblptrh
  4030  001706  4A0F               	infsnz	printf@f,f,c
  4031  001708  2A10               	incf	printf@f+1,f,c
  4032  00170A                     	if	1	;Program memory is < 0x10000, tblptru is always zero
  4033  00170A  6AF8               	clrf	tblptru,c
  4034  00170C                     	endif
  4035  00170C                     	if	0	;tblptru may be non-zero
  4036  00170C                     	endif
  4037  00170C  0008               	tblrd		*
  4038  00170E  CFF5 F013          	movff	tablat,printf@c
  4039  001712  6613               	tstfsz	printf@c& (0+255),c
  4040  001714  D7F1               	goto	l1092
  4041                           
  4042                           ;doprnt.c: 1478: }
  4043                           ;doprnt.c: 1542: }
  4044                           ;doprnt.c: 1549: return 0;
  4045                           ;	Return value of _printf is never used
  4046  001716  0012               	return	
  4047  001718                     __end_of_printf:
  4048                           	opt stack 0
  4049                           stkptr	equ	0xFFC
  4050                           tblptru	equ	0xFF8
  4051                           tblptrh	equ	0xFF7
  4052                           tblptrl	equ	0xFF6
  4053                           tablat	equ	0xFF5
  4054                           prodh	equ	0xFF4
  4055                           prodl	equ	0xFF3
  4056                           intcon	equ	0xFF2
  4057                           wreg	equ	0xFE8
  4058                           status	equ	0xFD8
  4059                           
  4060 ;; *************** function _putch *****************
  4061 ;; Defined at:
  4062 ;;		line 7 in file "C:\Program Files (x86)\Microchip\xc8\v1.33\sources\common\putch.c"
  4063 ;; Parameters:    Size  Location     Type
  4064 ;;  c               1    wreg     unsigned char 
  4065 ;; Auto vars:     Size  Location     Type
  4066 ;;  c               1    0[COMRAM] unsigned char 
  4067 ;; Return value:  Size  Location     Type
  4068 ;;		None               void
  4069 ;; Registers used:
  4070 ;;		wreg
  4071 ;; Tracked objects:
  4072 ;;		On entry : 0/0
  4073 ;;		On exit  : 0/0
  4074 ;;		Unchanged: 0/0
  4075 ;; Data sizes:     COMRAM   BANK0   BANK1   BANK2   BANK3   BANK4   BANK5   BANK6   BANK7   BANK8   BANK9  BANK10  BANK1
      +1  BANK12  BANK13  BANK14  BANK15
  4076 ;;      Params:         0       0       0       0       0       0       0       0       0       0       0       0       
      +0       0       0       0       0
  4077 ;;      Locals:         0       0       0       0       0       0       0       0       0       0       0       0       
      +0       0       0       0       0
  4078 ;;      Temps:          0       0       0       0       0       0       0       0       0       0       0       0       
      +0       0       0       0       0
  4079 ;;      Totals:         0       0       0       0       0       0       0       0       0       0       0       0       
      +0       0       0       0       0
  4080 ;;Total ram usage:        0 bytes
  4081 ;; Hardware stack levels used:    1
  4082 ;; Hardware stack levels required when called:    1
  4083 ;; This function calls:
  4084 ;;		Nothing
  4085 ;; This function is called by:
  4086 ;;		_printf
  4087 ;; This function uses a non-reentrant model
  4088 ;;
  4089                           
  4090                           	psect	text45
  4091  0019CA                     __ptext45:
  4092                           	opt stack 0
  4093  0019CA                     _putch:
  4094                           	opt stack 28
  4095                           
  4096                           ;incstack = 0
  4097  0019CA  0012               	return	
  4098  0019CC                     __end_of_putch:
  4099                           	opt stack 0
  4100                           stkptr	equ	0xFFC
  4101                           tblptru	equ	0xFF8
  4102                           tblptrh	equ	0xFF7
  4103                           tblptrl	equ	0xFF6
  4104                           tablat	equ	0xFF5
  4105                           prodh	equ	0xFF4
  4106                           prodl	equ	0xFF3
  4107                           intcon	equ	0xFF2
  4108                           wreg	equ	0xFE8
  4109                           status	equ	0xFD8
  4110                           
  4111 ;; *************** function _openPORTD *****************
  4112 ;; Defined at:
  4113 ;;		line 168 in file "../sumovore.c"
  4114 ;; Parameters:    Size  Location     Type
  4115 ;;		None
  4116 ;; Auto vars:     Size  Location     Type
  4117 ;;		None
  4118 ;; Return value:  Size  Location     Type
  4119 ;;		None               void
  4120 ;; Registers used:
  4121 ;;		wreg, status,2
  4122 ;; Tracked objects:
  4123 ;;		On entry : 0/0
  4124 ;;		On exit  : 0/0
  4125 ;;		Unchanged: 0/0
  4126 ;; Data sizes:     COMRAM   BANK0   BANK1   BANK2   BANK3   BANK4   BANK5   BANK6   BANK7   BANK8   BANK9  BANK10  BANK1
      +1  BANK12  BANK13  BANK14  BANK15
  4127 ;;      Params:         0       0       0       0       0       0       0       0       0       0       0       0       
      +0       0       0       0       0
  4128 ;;      Locals:         0       0       0       0       0       0       0       0       0       0       0       0       
      +0       0       0       0       0
  4129 ;;      Temps:          0       0       0       0       0       0       0       0       0       0       0       0       
      +0       0       0       0       0
  4130 ;;      Totals:         0       0       0       0       0       0       0       0       0       0       0       0       
      +0       0       0       0       0
  4131 ;;Total ram usage:        0 bytes
  4132 ;; Hardware stack levels used:    1
  4133 ;; Hardware stack levels required when called:    1
  4134 ;; This function calls:
  4135 ;;		Nothing
  4136 ;; This function is called by:
  4137 ;;		_initialization
  4138 ;;		_LVtrap
  4139 ;; This function uses a non-reentrant model
  4140 ;;
  4141                           
  4142                           	psect	text46
  4143  0019BC                     __ptext46:
  4144                           	opt stack 0
  4145  0019BC                     _openPORTD:
  4146                           	opt stack 28
  4147                           
  4148                           ;sumovore.c: 170: TRISD = 0b01100000;
  4149                           
  4150                           ;incstack = 0
  4151  0019BC  0E60               	movlw	96
  4152  0019BE  6E95               	movwf	3989,c	;volatile
  4153  0019C0  0012               	return	
  4154  0019C2                     __end_of_openPORTD:
  4155                           	opt stack 0
  4156                           stkptr	equ	0xFFC
  4157                           tblptru	equ	0xFF8
  4158                           tblptrh	equ	0xFF7
  4159                           tblptrl	equ	0xFF6
  4160                           tablat	equ	0xFF5
  4161                           prodh	equ	0xFF4
  4162                           prodl	equ	0xFF3
  4163                           intcon	equ	0xFF2
  4164                           wreg	equ	0xFE8
  4165                           status	equ	0xFD8
  4166                           
  4167 ;; *************** function _gtrap *****************
  4168 ;; Defined at:
  4169 ;;		line 463 in file "../sumovore.c"
  4170 ;; Parameters:    Size  Location     Type
  4171 ;;		None
  4172 ;; Auto vars:     Size  Location     Type
  4173 ;;  count           4   14[COMRAM] unsigned long 
  4174 ;; Return value:  Size  Location     Type
  4175 ;;		None               void
  4176 ;; Registers used:
  4177 ;;		wreg, status,2, status,0
  4178 ;; Tracked objects:
  4179 ;;		On entry : 0/0
  4180 ;;		On exit  : 0/0
  4181 ;;		Unchanged: 0/0
  4182 ;; Data sizes:     COMRAM   BANK0   BANK1   BANK2   BANK3   BANK4   BANK5   BANK6   BANK7   BANK8   BANK9  BANK10  BANK1
      +1  BANK12  BANK13  BANK14  BANK15
  4183 ;;      Params:         0       0       0       0       0       0       0       0       0       0       0       0       
      +0       0       0       0       0
  4184 ;;      Locals:         4       0       0       0       0       0       0       0       0       0       0       0       
      +0       0       0       0       0
  4185 ;;      Temps:          0       0       0       0       0       0       0       0       0       0       0       0       
      +0       0       0       0       0
  4186 ;;      Totals:         4       0       0       0       0       0       0       0       0       0       0       0       
      +0       0       0       0       0
  4187 ;;Total ram usage:        4 bytes
  4188 ;; Hardware stack levels used:    1
  4189 ;; Hardware stack levels required when called:    1
  4190 ;; This function calls:
  4191 ;;		Nothing
  4192 ;; This function is called by:
  4193 ;;		_BORtask
  4194 ;;		_WDTtask
  4195 ;;		_STKFULtask
  4196 ;;		_RESETtask
  4197 ;;		_LVtrap
  4198 ;; This function uses a non-reentrant model
  4199 ;;
  4200                           
  4201                           	psect	text47
  4202  00150A                     __ptext47:
  4203                           	opt stack 0
  4204  00150A                     _gtrap:
  4205                           	opt stack 26
  4206                           
  4207                           ;sumovore.c: 465: unsigned long count=0;
  4208                           
  4209                           ;incstack = 0
  4210  00150A  0E00               	movlw	0
  4211  00150C  6E0F               	movwf	gtrap@count,c
  4212  00150E  0E00               	movlw	0
  4213  001510  6E10               	movwf	gtrap@count+1,c
  4214  001512  0E00               	movlw	0
  4215  001514  6E11               	movwf	gtrap@count+2,c
  4216  001516  0E00               	movlw	0
  4217  001518  6E12               	movwf	gtrap@count+3,c
  4218  00151A                     l290:
  4219  00151A  0004               	clrwdt		;# 
  4220                           
  4221                           ;sumovore.c: 470: if (count==30000u)
  4222  00151C  5010               	movf	gtrap@count+1,w,c
  4223  00151E  0A75               	xorlw	117
  4224  001520  0E30               	movlw	48
  4225  001522  B4D8               	btfsc	status,2,c
  4226  001524  180F               	xorwf	gtrap@count,w,c
  4227  001526  1011               	iorwf	gtrap@count+2,w,c
  4228  001528  1012               	iorwf	gtrap@count+3,w,c
  4229  00152A  A4D8               	btfss	status,2,c
  4230  00152C  D00B               	goto	l1140
  4231                           
  4232                           ;sumovore.c: 471: {
  4233                           ;sumovore.c: 472: count=0;
  4234  00152E  0E00               	movlw	0
  4235  001530  6E0F               	movwf	gtrap@count,c
  4236  001532  0E00               	movlw	0
  4237  001534  6E10               	movwf	gtrap@count+1,c
  4238  001536  0E00               	movlw	0
  4239  001538  6E11               	movwf	gtrap@count+2,c
  4240  00153A  0E00               	movlw	0
  4241  00153C  6E12               	movwf	gtrap@count+3,c
  4242                           
  4243                           ;sumovore.c: 473: PORTDbits.RD0=!1;
  4244  00153E  9083               	bcf	3971,0,c	;volatile
  4245                           
  4246                           ;sumovore.c: 474: PORTDbits.RD1=!0;
  4247  001540  8283               	bsf	3971,1,c	;volatile
  4248                           
  4249                           ;sumovore.c: 475: }
  4250  001542  D00B               	goto	l1144
  4251  001544                     l1140:
  4252                           
  4253                           ;sumovore.c: 476: else if (count==15000u)
  4254  001544  5010               	movf	gtrap@count+1,w,c
  4255  001546  0A3A               	xorlw	58
  4256  001548  0E98               	movlw	152
  4257  00154A  B4D8               	btfsc	status,2,c
  4258  00154C  180F               	xorwf	gtrap@count,w,c
  4259  00154E  1011               	iorwf	gtrap@count+2,w,c
  4260  001550  1012               	iorwf	gtrap@count+3,w,c
  4261  001552  A4D8               	btfss	status,2,c
  4262  001554  D002               	goto	l1144
  4263                           
  4264                           ;sumovore.c: 477: {
  4265                           ;sumovore.c: 478: PORTDbits.RD0=!0;
  4266  001556  8083               	bsf	3971,0,c	;volatile
  4267                           
  4268                           ;sumovore.c: 479: PORTDbits.RD1=!1;
  4269  001558  9283               	bcf	3971,1,c	;volatile
  4270  00155A                     l1144:
  4271                           
  4272                           ;sumovore.c: 480: }
  4273                           ;sumovore.c: 481: count++;
  4274  00155A  0E01               	movlw	1
  4275  00155C  260F               	addwf	gtrap@count,f,c
  4276  00155E  0E00               	movlw	0
  4277  001560  2210               	addwfc	gtrap@count+1,f,c
  4278  001562  2211               	addwfc	gtrap@count+2,f,c
  4279  001564  2212               	addwfc	gtrap@count+3,f,c
  4280  001566  D7D9               	goto	l290
  4281  001568                     __end_of_gtrap:
  4282                           	opt stack 0
  4283                           stkptr	equ	0xFFC
  4284                           tblptru	equ	0xFF8
  4285                           tblptrh	equ	0xFF7
  4286                           tblptrl	equ	0xFF6
  4287                           tablat	equ	0xFF5
  4288                           prodh	equ	0xFF4
  4289                           prodl	equ	0xFF3
  4290                           intcon	equ	0xFF2
  4291                           wreg	equ	0xFE8
  4292                           status	equ	0xFD8
  4293                           
  4294 ;; *************** function _high_isr *****************
  4295 ;; Defined at:
  4296 ;;		line 24 in file "../interrupts.c"
  4297 ;; Parameters:    Size  Location     Type
  4298 ;;		None
  4299 ;; Auto vars:     Size  Location     Type
  4300 ;;		None
  4301 ;; Return value:  Size  Location     Type
  4302 ;;		None               void
  4303 ;; Registers used:
  4304 ;;		wreg, status,2
  4305 ;; Tracked objects:
  4306 ;;		On entry : 0/0
  4307 ;;		On exit  : 0/0
  4308 ;;		Unchanged: 0/0
  4309 ;; Data sizes:     COMRAM   BANK0   BANK1   BANK2   BANK3   BANK4   BANK5   BANK6   BANK7   BANK8   BANK9  BANK10  BANK1
      +1  BANK12  BANK13  BANK14  BANK15
  4310 ;;      Params:         0       0       0       0       0       0       0       0       0       0       0       0       
      +0       0       0       0       0
  4311 ;;      Locals:         0       0       0       0       0       0       0       0       0       0       0       0       
      +0       0       0       0       0
  4312 ;;      Temps:         14       0       0       0       0       0       0       0       0       0       0       0       
      +0       0       0       0       0
  4313 ;;      Totals:        14       0       0       0       0       0       0       0       0       0       0       0       
      +0       0       0       0       0
  4314 ;;Total ram usage:       14 bytes
  4315 ;; Hardware stack levels used:    1
  4316 ;; This function calls:
  4317 ;;		Nothing
  4318 ;; This function is called by:
  4319 ;;		Interrupt level 2
  4320 ;; This function uses a non-reentrant model
  4321 ;;
  4322                           
  4323                           	psect	intcode
  4324  000008                     __pintcode:
  4325                           	opt stack 0
  4326  000008                     _high_isr:
  4327                           	opt stack 25
  4328                           
  4329                           ;incstack = 0
  4330  000008  CFFA F001          	movff	pclath,??_high_isr
  4331  00000C  CFFB F002          	movff	pclatu,??_high_isr+1
  4332  000010  CFE9 F003          	movff	fsr0l,??_high_isr+2
  4333  000014  EDE3  F009         	call	int_func,f	;refresh shadow registers
  4334                           stkptr	equ	0xFFC
  4335                           pclatu	equ	0xFFB
  4336                           pclath	equ	0xFFA
  4337                           tblptru	equ	0xFF8
  4338                           tblptrh	equ	0xFF7
  4339                           tblptrl	equ	0xFF6
  4340                           tablat	equ	0xFF5
  4341                           prodh	equ	0xFF4
  4342                           prodl	equ	0xFF3
  4343                           intcon	equ	0xFF2
  4344                           fsr0l	equ	0xFE9
  4345                           wreg	equ	0xFE8
  4346                           status	equ	0xFD8
  4347                           
  4348                           	psect	intcode_body
  4349  0013C6                     __pintcode_body:
  4350                           	opt stack 25
  4351  0013C6                     int_func:
  4352                           	opt stack 25
  4353  0013C6  0006               	pop		; remove dummy address from shadow register refresh
  4354  0013C8  CFEA F004          	movff	fsr0h,??_high_isr+3
  4355  0013CC  CFE1 F005          	movff	fsr1l,??_high_isr+4
  4356  0013D0  CFE2 F006          	movff	fsr1h,??_high_isr+5
  4357  0013D4  CFD9 F007          	movff	fsr2l,??_high_isr+6
  4358  0013D8  CFDA F008          	movff	fsr2h,??_high_isr+7
  4359  0013DC  CFF3 F009          	movff	prodl,??_high_isr+8
  4360  0013E0  CFF4 F00A          	movff	prodh,??_high_isr+9
  4361  0013E4  CFF6 F00B          	movff	tblptrl,??_high_isr+10
  4362  0013E8  CFF7 F00C          	movff	tblptrh,??_high_isr+11
  4363  0013EC  CFF8 F00D          	movff	tblptru,??_high_isr+12
  4364  0013F0  CFF5 F00E          	movff	tablat,??_high_isr+13
  4365                           
  4366                           ;interrupts.c: 26: PIR2bits.HLVDIF = 0;
  4367  0013F4  94A1               	bcf	4001,2,c	;volatile
  4368                           
  4369                           ;interrupts.c: 27: TRISA = 0xff;
  4370  0013F6  6892               	setf	3986,c	;volatile
  4371                           
  4372                           ;interrupts.c: 28: TRISB = 0xff;
  4373  0013F8  6893               	setf	3987,c	;volatile
  4374                           
  4375                           ;interrupts.c: 29: TRISC = 0xff;
  4376  0013FA  6894               	setf	3988,c	;volatile
  4377                           
  4378                           ;interrupts.c: 30: TRISD = 0xff;
  4379  0013FC  6895               	setf	3989,c	;volatile
  4380                           
  4381                           ;interrupts.c: 31: TRISE = 0x03;
  4382  0013FE  0E03               	movlw	3
  4383  001400  6E96               	movwf	3990,c	;volatile
  4384                           
  4385                           ;interrupts.c: 32: lvd_flag =1;
  4386  001402  0E01               	movlw	1
  4387  001404  6E21               	movwf	_lvd_flag,c
  4388                           
  4389                           ;interrupts.c: 36: PIE2bits.HLVDIE = 0;
  4390  001406  94A0               	bcf	4000,2,c	;volatile
  4391                           
  4392                           ;interrupts.c: 40: HLVDCONbits.HLVDEN = 0;
  4393  001408  98D2               	bcf	4050,4,c	;volatile
  4394  00140A  C00E  FFF5         	movff	??_high_isr+13,tablat
  4395  00140E  C00D  FFF8         	movff	??_high_isr+12,tblptru
  4396  001412  C00C  FFF7         	movff	??_high_isr+11,tblptrh
  4397  001416  C00B  FFF6         	movff	??_high_isr+10,tblptrl
  4398  00141A  C00A  FFF4         	movff	??_high_isr+9,prodh
  4399  00141E  C009  FFF3         	movff	??_high_isr+8,prodl
  4400  001422  C008  FFDA         	movff	??_high_isr+7,fsr2h
  4401  001426  C007  FFD9         	movff	??_high_isr+6,fsr2l
  4402  00142A  C006  FFE2         	movff	??_high_isr+5,fsr1h
  4403  00142E  C005  FFE1         	movff	??_high_isr+4,fsr1l
  4404  001432  C004  FFEA         	movff	??_high_isr+3,fsr0h
  4405  001436  C003  FFE9         	movff	??_high_isr+2,fsr0l
  4406  00143A  C002  FFFB         	movff	??_high_isr+1,pclatu
  4407  00143E  C001  FFFA         	movff	??_high_isr,pclath
  4408  001442  0011               	retfie		f
  4409  001444                     __end_of_high_isr:
  4410                           	opt stack 0
  4411                           stkptr	equ	0xFFC
  4412                           pclatu	equ	0xFFB
  4413                           pclath	equ	0xFFA
  4414                           tblptru	equ	0xFF8
  4415                           tblptrh	equ	0xFF7
  4416                           tblptrl	equ	0xFF6
  4417                           tablat	equ	0xFF5
  4418                           prodh	equ	0xFF4
  4419                           prodl	equ	0xFF3
  4420                           intcon	equ	0xFF2
  4421                           fsr0h	equ	0xFEA
  4422                           fsr0l	equ	0xFE9
  4423                           wreg	equ	0xFE8
  4424                           fsr1h	equ	0xFE2
  4425                           fsr1l	equ	0xFE1
  4426                           fsr2h	equ	0xFDA
  4427                           fsr2l	equ	0xFD9
  4428                           status	equ	0xFD8
  4429                           stkptr	equ	0xFFC
  4430                           pclatu	equ	0xFFB
  4431                           pclath	equ	0xFFA
  4432                           tblptru	equ	0xFF8
  4433                           tblptrh	equ	0xFF7
  4434                           tblptrl	equ	0xFF6
  4435                           tablat	equ	0xFF5
  4436                           prodh	equ	0xFF4
  4437                           prodl	equ	0xFF3
  4438                           intcon	equ	0xFF2
  4439                           fsr0h	equ	0xFEA
  4440                           fsr0l	equ	0xFE9
  4441                           wreg	equ	0xFE8
  4442                           fsr1h	equ	0xFE2
  4443                           fsr1l	equ	0xFE1
  4444                           fsr2h	equ	0xFDA
  4445                           fsr2l	equ	0xFD9
  4446                           status	equ	0xFD8
  4447                           
  4448                           	psect	rparam
  4449  0000                     stkptr	equ	0xFFC
  4450                           pclatu	equ	0xFFB
  4451                           pclath	equ	0xFFA
  4452                           tblptru	equ	0xFF8
  4453                           tblptrh	equ	0xFF7
  4454                           tblptrl	equ	0xFF6
  4455                           tablat	equ	0xFF5
  4456                           prodh	equ	0xFF4
  4457                           prodl	equ	0xFF3
  4458                           intcon	equ	0xFF2
  4459                           fsr0h	equ	0xFEA
  4460                           fsr0l	equ	0xFE9
  4461                           wreg	equ	0xFE8
  4462                           fsr1h	equ	0xFE2
  4463                           fsr1l	equ	0xFE1
  4464                           fsr2h	equ	0xFDA
  4465                           fsr2l	equ	0xFD9
  4466                           status	equ	0xFD8


Data Sizes:
    Strings     111
    Constant    14
    Data        0
    BSS         4
    Persistent  0
    Stack       0

Auto Spaces:
    Space          Size  Autos    Used
    COMRAM          127     29      33
    BANK0           128      0       0
    BANK1           256      0       0
    BANK2           256      0       0
    BANK3           256      0       0
    BANK4           256      0       0
    BANK5           256      0       0
    BANK6           256      0       0
    BANK7           256      0       0
    BANK8           256      0       0
    BANK9           256      0       0
    BANK10          256      0       0
    BANK11          256      0       0
    BANK12          256      0       0
    BANK13          256      0       0
    BANK14          256      0       0
    BANK15          128      0       0

Pointer List with Targets:

    printf@f	PTR const unsigned char  size(2) Largest target is 64
		 -> STR_7(CODE[7]), STR_6(CODE[10]), STR_5(CODE[9]), STR_4(CODE[9]), 
		 -> STR_3(CODE[6]), STR_2(CODE[6]), STR_1(CODE[64]), 

    printf@ap	PTR void [1] size(2) Largest target is 2
		 -> ?_printf(COMRAM[2]), 

    S1305$_cp	PTR const unsigned char  size(2) Largest target is 0

    _val._str._cp	PTR const unsigned char  size(2) Largest target is 0


Critical Paths under _main in COMRAM

    _motors_brake_all->_SetDCPWM1
    _motors_brake_all->_SetDCPWM2
    _turn_right->_set_motor_speed
    _turn_left->_set_motor_speed
    _straight_fwd->_set_motor_speed
    _spin_right->_set_motor_speed
    _spin_left->_set_motor_speed
    _set_motor_speed->_SetDCPWM1
    _set_motor_speed->_SetDCPWM2
    _reset_codes->_PORtask
    _WDTtask->_printf
    _STKFULtask->_printf
    _RESETtask->_printf
    _PORtask->_printf
    _BORtask->_printf
    _check_sensors->_adc
    _adc->_ReadADC
    _adc->_SetChanADC
    _LVtrap->_printf

Critical Paths under _high_isr in COMRAM

    None.

Critical Paths under _main in BANK0

    None.

Critical Paths under _high_isr in BANK0

    None.

Critical Paths under _main in BANK1

    None.

Critical Paths under _high_isr in BANK1

    None.

Critical Paths under _main in BANK2

    None.

Critical Paths under _high_isr in BANK2

    None.

Critical Paths under _main in BANK3

    None.

Critical Paths under _high_isr in BANK3

    None.

Critical Paths under _main in BANK4

    None.

Critical Paths under _high_isr in BANK4

    None.

Critical Paths under _main in BANK5

    None.

Critical Paths under _high_isr in BANK5

    None.

Critical Paths under _main in BANK6

    None.

Critical Paths under _high_isr in BANK6

    None.

Critical Paths under _main in BANK7

    None.

Critical Paths under _high_isr in BANK7

    None.

Critical Paths under _main in BANK8

    None.

Critical Paths under _high_isr in BANK8

    None.

Critical Paths under _main in BANK9

    None.

Critical Paths under _high_isr in BANK9

    None.

Critical Paths under _main in BANK10

    None.

Critical Paths under _high_isr in BANK10

    None.

Critical Paths under _main in BANK11

    None.

Critical Paths under _high_isr in BANK11

    None.

Critical Paths under _main in BANK12

    None.

Critical Paths under _high_isr in BANK12

    None.

Critical Paths under _main in BANK13

    None.

Critical Paths under _high_isr in BANK13

    None.

Critical Paths under _main in BANK14

    None.

Critical Paths under _high_isr in BANK14

    None.

Critical Paths under _main in BANK15

    None.

Critical Paths under _high_isr in BANK15

    None.

Call Graph Tables:

 ---------------------------------------------------------------------------------
 (Depth) Function   	        Calls       Base Space   Used Autos Params    Refs
 ---------------------------------------------------------------------------------
 (0) _main                                                 0     0      0   12457
                             _LVtrap
                      _check_sensors
                     _initialization
                       _lvd_flag_set
                      _motor_control
                             _printf
                           _set_leds
 ---------------------------------------------------------------------------------
 (1) _set_leds                                             1     1      0       0
                                             14 COMRAM     1     1      0
 ---------------------------------------------------------------------------------
 (1) _motor_control                                        0     0      0    8498
               _follow_simple_curves
                   _motors_brake_all
 ---------------------------------------------------------------------------------
 (2) _motors_brake_all                                     0     0      0     408
                          _SetDCPWM1
                          _SetDCPWM2
 ---------------------------------------------------------------------------------
 (2) _follow_simple_curves                                 0     0      0    8090
                          _spin_left
                         _spin_right
                       _straight_fwd
                          _turn_left
                         _turn_right
 ---------------------------------------------------------------------------------
 (3) _turn_right                                           0     0      0    1618
                    _set_motor_speed
 ---------------------------------------------------------------------------------
 (3) _turn_left                                            0     0      0    1618
                    _set_motor_speed
 ---------------------------------------------------------------------------------
 (3) _straight_fwd                                         0     0      0    1618
                    _set_motor_speed
 ---------------------------------------------------------------------------------
 (3) _spin_right                                           0     0      0    1618
                    _set_motor_speed
 ---------------------------------------------------------------------------------
 (3) _spin_left                                            0     0      0    1618
                    _set_motor_speed
 ---------------------------------------------------------------------------------
 (4) _set_motor_speed                                      9     6      3    1618
                                             20 COMRAM     9     6      3
                          _SetDCPWM1
                          _SetDCPWM2
 ---------------------------------------------------------------------------------
 (1) _lvd_flag_set                                         0     0      0       0
 ---------------------------------------------------------------------------------
 (1) _initialization                                       0     0      0    3097
                            _OpenADC
                           _OpenPWM1
                           _OpenPWM2
                         _OpenTimer2
                          _OpenUSART
                          _SetDCPWM1
                          _SetDCPWM2
                            _openLVD
                          _openPORTA
                          _openPORTB
                    _openPORTCforPWM
                  _openPORTCforUSART
                          _openPORTD
                          _openPORTE
                        _reset_codes
                      _set_osc_32MHz
 ---------------------------------------------------------------------------------
 (2) _set_osc_32MHz                                        2     2      0      30
                                             14 COMRAM     2     2      0
 ---------------------------------------------------------------------------------
 (2) _reset_codes                                          0     0      0    2170
                            _BORtask
                            _PORtask
                          _RESETtask
                         _STKFULtask
                            _WDTtask
                              _isBOR
                              _isPOR
                            _isWDTTO
 ---------------------------------------------------------------------------------
 (3) _isWDTTO                                              0     0      0       0
 ---------------------------------------------------------------------------------
 (3) _isPOR                                                0     0      0       0
 ---------------------------------------------------------------------------------
 (3) _isBOR                                                0     0      0       0
 ---------------------------------------------------------------------------------
 (3) _WDTtask                                              0     0      0     431
                              _gtrap
                             _printf
 ---------------------------------------------------------------------------------
 (3) _STKFULtask                                           0     0      0     431
                              _gtrap
                             _printf
 ---------------------------------------------------------------------------------
 (3) _RESETtask                                            0     0      0     431
                              _gtrap
                             _printf
 ---------------------------------------------------------------------------------
 (3) _PORtask                                              8     8      0     446
                                             19 COMRAM     8     8      0
                        _StatusReset
                             _printf
 ---------------------------------------------------------------------------------
 (3) _BORtask                                              0     0      0     431
                        _StatusReset
                              _gtrap
                             _printf
 ---------------------------------------------------------------------------------
 (4) _StatusReset                                          0     0      0       0
 ---------------------------------------------------------------------------------
 (2) _openPORTE                                            0     0      0       0
 ---------------------------------------------------------------------------------
 (2) _openPORTCforUSART                                    0     0      0       0
 ---------------------------------------------------------------------------------
 (2) _openPORTCforPWM                                      0     0      0       0
 ---------------------------------------------------------------------------------
 (2) _openPORTB                                            0     0      0       0
 ---------------------------------------------------------------------------------
 (2) _openPORTA                                            0     0      0       0
 ---------------------------------------------------------------------------------
 (2) _openLVD                                              0     0      0       0
 ---------------------------------------------------------------------------------
 (3) _SetDCPWM2                                            6     4      2     204
                                             14 COMRAM     6     4      2
 ---------------------------------------------------------------------------------
 (3) _SetDCPWM1                                            6     4      2     204
                                             14 COMRAM     6     4      2
 ---------------------------------------------------------------------------------
 (2) _OpenUSART                                            6     4      2     203
                                             14 COMRAM     6     4      2
 ---------------------------------------------------------------------------------
 (2) _OpenTimer2                                           1     1      0      30
                                             14 COMRAM     1     1      0
 ---------------------------------------------------------------------------------
 (2) _OpenPWM2                                             4     4      0      30
                                             14 COMRAM     3     3      0
 ---------------------------------------------------------------------------------
 (2) _OpenPWM1                                             1     1      0      15
                                             14 COMRAM     1     1      0
 ---------------------------------------------------------------------------------
 (2) _OpenADC                                              5     3      2     211
                                             14 COMRAM     5     3      2
 ---------------------------------------------------------------------------------
 (1) _check_sensors                                        1     1      0      30
                                             19 COMRAM     1     1      0
                                _adc
 ---------------------------------------------------------------------------------
 (2) _adc                                                  3     1      2      30
                                             16 COMRAM     3     1      2
                            _BusyADC
                         _ConvertADC
                            _ReadADC
                         _SetChanADC
 ---------------------------------------------------------------------------------
 (3) _SetChanADC                                           2     2      0      15
                                             14 COMRAM     2     2      0
 ---------------------------------------------------------------------------------
 (3) _ReadADC                                              2     0      2       0
                                             14 COMRAM     2     0      2
 ---------------------------------------------------------------------------------
 (3) _ConvertADC                                           0     0      0       0
 ---------------------------------------------------------------------------------
 (3) _BusyADC                                              0     0      0       0
 ---------------------------------------------------------------------------------
 (1) _LVtrap                                               0     0      0     431
                              _gtrap
                          _openPORTD
                             _printf
 ---------------------------------------------------------------------------------
 (1) _printf                                              12    10      2     401
                                             14 COMRAM     5     3      2
                              _putch
 ---------------------------------------------------------------------------------
 (2) _putch                                                1     1      0       0
 ---------------------------------------------------------------------------------
 (2) _openPORTD                                            0     0      0       0
 ---------------------------------------------------------------------------------
 (4) _gtrap                                                4     4      0      30
                                             14 COMRAM     4     4      0
 ---------------------------------------------------------------------------------
 Estimated maximum stack depth 4
 ---------------------------------------------------------------------------------
 (Depth) Function   	        Calls       Base Space   Used Autos Params    Refs
 ---------------------------------------------------------------------------------
 (6) _high_isr                                            14    14      0       0
                                              0 COMRAM    14    14      0
 ---------------------------------------------------------------------------------
 Estimated maximum stack depth 6
 ---------------------------------------------------------------------------------

 Call Graph Graphs:

 _main (ROOT)
   _LVtrap
     _gtrap
     _openPORTD
     _printf
       _putch
   _check_sensors
     _adc
       _BusyADC
       _ConvertADC
       _ReadADC
       _SetChanADC
   _initialization
     _OpenADC
     _OpenPWM1
     _OpenPWM2
     _OpenTimer2
     _OpenUSART
     _SetDCPWM1
     _SetDCPWM2
     _openLVD
     _openPORTA
     _openPORTB
     _openPORTCforPWM
     _openPORTCforUSART
     _openPORTD
     _openPORTE
     _reset_codes
       _BORtask
         _StatusReset
         _gtrap
         _printf
           _putch
       _PORtask
         _StatusReset
         _printf
           _putch
       _RESETtask
         _gtrap
         _printf
           _putch
       _STKFULtask
         _gtrap
         _printf
           _putch
       _WDTtask
         _gtrap
         _printf
           _putch
       _isBOR
       _isPOR
       _isWDTTO
     _set_osc_32MHz
   _lvd_flag_set
   _motor_control
     _follow_simple_curves
       _spin_left
         _set_motor_speed
           _SetDCPWM1
           _SetDCPWM2
       _spin_right
         _set_motor_speed
           _SetDCPWM1
           _SetDCPWM2
       _straight_fwd
         _set_motor_speed
           _SetDCPWM1
           _SetDCPWM2
       _turn_left
         _set_motor_speed
           _SetDCPWM1
           _SetDCPWM2
       _turn_right
         _set_motor_speed
           _SetDCPWM1
           _SetDCPWM2
     _motors_brake_all
       _SetDCPWM1
       _SetDCPWM2
   _printf
     _putch
   _set_leds

 _high_isr (ROOT)

 Address spaces:
Name               Size   Autos  Total    Cost      Usage
BIGRAM             F7F      0       0      37        0.0%
EEDATA             400      0       0       0        0.0%
BITBANK14          100      0       0      32        0.0%
BANK14             100      0       0      33        0.0%
BITBANK13          100      0       0      30        0.0%
BANK13             100      0       0      31        0.0%
BITBANK12          100      0       0      28        0.0%
BANK12             100      0       0      29        0.0%
BITBANK11          100      0       0      26        0.0%
BANK11             100      0       0      27        0.0%
BITBANK10          100      0       0      24        0.0%
BANK10             100      0       0      25        0.0%
BITBANK9           100      0       0      22        0.0%
BANK9              100      0       0      23        0.0%
BITBANK8           100      0       0      20        0.0%
BANK8              100      0       0      21        0.0%
BITBANK7           100      0       0      18        0.0%
BANK7              100      0       0      19        0.0%
BITBANK6           100      0       0      16        0.0%
BANK6              100      0       0      17        0.0%
BITBANK5           100      0       0      14        0.0%
BANK5              100      0       0      15        0.0%
BITBANK4           100      0       0      12        0.0%
BANK4              100      0       0      13        0.0%
BITBANK3           100      0       0      10        0.0%
BANK3              100      0       0      11        0.0%
BITBANK2           100      0       0       8        0.0%
BANK2              100      0       0       9        0.0%
BITBANK1           100      0       0       6        0.0%
BANK1              100      0       0       7        0.0%
BITBANK15           80      0       0      35        0.0%
BANK15              80      0       0      36        0.0%
BITBANK0            80      0       0       4        0.0%
BANK0               80      0       0       5        0.0%
BITCOMRAM           7F      0       0       0        0.0%
COMRAM              7F     1D      21       1       26.0%
BITSFR               0      0       0      40        0.0%
SFR                  0      0       0      40        0.0%
STACK                0      0       0       2        0.0%
NULL                 0      0       0       0        0.0%
ABS                  0      0      21      34        0.0%
DATA                 0      0      21       3        0.0%
CODE                 0      0       0       0        0.0%


Microchip Technology PIC18 Macro Assembler V1.33 build 59893 
Symbol Table                                                                                   Fri Mar 08 10:06:23 2019

                         _STKPTRbits 000FFC                 _follow_simple_curves 16BE  
                                 l80 16D2                                   l82 16DC  
                                 l75 168C                                   l84 16E6  
                                 l78 16C8                                   l87 16EC  
                                 u15 15EC                                   u25 15B2  
                                 u80 110E                                   u86 1110  
                        __CFG_BORV$0 000000                                  l400 164A  
                                l232 1130                                  l401 164C  
                                l305 173E                                  l260 15A6  
                                l229 1104                                  l422 18F0  
                                l351 1506                                  l423 18F2  
                                l263 12A2                                  l264 124A  
                                l256 1598                                  l329 1992  
                                l290 151A                                  l452 147A  
                                l453 147C                                  l454 1486  
                                l455 1488                                  l448 1466  
                                l464 1978                                  l457 14AA  
                                l473 194A                                  l482 1936  
                                l399 1640                                  u100 113A  
                                u130 1990                                  u106 113C  
                                _PR2 000FCB                                  u600 137E  
                                u530 1160                                  u610 1398  
                                u540 1186                                  u620 13B4  
                                u550 11B0                                  u606 1380  
                                u560 11D8                                  u536 1162  
                                u616 139A                                  u570 11FE  
                                u546 1188                                  u626 13B6  
                                u556 11B2                                  u580 1350  
                                u566 11DA                                  u590 1366  
                                u576 1200                                  u586 1352  
                                u596 1368                                  _adc 17FE  
                                wreg 000FE8                         __CFG_LVP$OFF 000000  
                       __CFG_WDT$OFF 000000                                 ?_adc 0011  
                               l1110 10EC                                 l1120 111C  
                               l1106 10D4                                 l1140 1544  
                               l1222 1280                                 l1126 1132  
                               l1118 1106                                 l1144 155A  
                               l1240 1976                                 l1226 1296  
                               l1092 16F8                                 l1094 16FE  
                               l1192 1948                                 l1424 1578  
                               l1434 15A2                                 l1284 1934  
                               l1428 1588                                 l1560 1664  
                               l1386 1468                                 l1378 145A  
                               l1554 1658                                 l1492 180A  
                               l1484 163C                                 l1556 165E  
                               l1588 16A0                      __end_of_BORtask 1864  
                               STR_1 100F                                 STR_2 1078  
                               STR_3 1072                                 STR_4 1062  
                               STR_5 1059                                 STR_6 104F  
                               STR_7 106B                                 _TMR2 000FCC  
                       __CFG_WDTPS$8 000000                     ??_initialization 001C  
                               _main 168E                __end_of_check_sensors 120E  
                               fsr0h 000FEA                                 fsr1h 000FE2  
                               fsr0l 000FE9                                 fsr2h 000FDA  
                               fsr1l 000FE1                                 fsr2l 000FD9  
                               pclat 000FFA                        __CFG_BOREN$ON 000000  
                    __end_of_PORtask 12B8                                 prodh 000FF4  
                               prodl 000FF3                __size_of_straight_fwd 0026  
                               start 0018                      __end_of_WDTtask 18BE  
                    __end_of_BusyADC 1994                      __end_of_ReadADC 199E  
              ?_follow_simple_curves 0001                      __end_of_OpenADC 150A  
                              ??_adc 0013                                ?_main 0001  
                              _T2CON 000FCA                   __size_of_RESETtask 001C  
                              _RCSTA 000FAB                                _SPBRG 000FAF  
                              _PORTD 000F83                                _TRISA 000F92  
                              _TRISB 000F93                                _TRISC 000F94  
                              _TRISD 000F95                                _TRISE 000F96  
                    _set_motor_speed 1080                                _TXSTA 000FAC  
                    __end_of_isWDTTO 1938              __end_of_openPORTCforPWM 1988  
                              _isBOR 196C                                _isPOR 1938  
                              _gtrap 150A                         _straight_fwd 178C  
                              _putch 19CA                      __end_of_openLVD 190E  
                         _ConvertADC 19C6                                tablat 000FF5  
         __size_of_openPORTCforUSART 0006                                status 000FD8  
                        ?_STKFULtask 0001                       __CFG_MCLRE$OFF 000000  
                    __initialization 195E                         __end_of_main 16BE  
                   __end_of_OpenPWM1 195E                     __end_of_OpenPWM2 1656  
                             ??_main 001E                        __activetblptr 000003  
                         _SetChanADC 190E                            ??_BORtask 0014  
                             ?_isBOR 0001                               ?_isPOR 0001  
                             _ADCON0 000FC2                               _ADCON1 000FC1  
                             _ADCON2 000FC0                               ?_gtrap 0001  
                             _ADRESH 000FC4                               _ADRESL 000FC3  
                             _CCPR1L 000FBE                               _CCPR2L 000FBB  
                             ?_putch 0001                            ??_PORtask 0014  
                          ??_WDTtask 0014                           _OpenTimer2 18DA  
                             _SPBRGH 000FB0                   __size_of_SetDCPWM1 003A  
                 __size_of_SetDCPWM2 003A                            ??_BusyADC 000F  
                          ??_ReadADC 0011                               _LVtrap 1864  
                  __end_of_RESETtask 18DA                            ??_OpenADC 0011  
                       ?_reset_codes 0001               ??_follow_simple_curves 001E  
                   __end_of_high_isr 1444                   __size_of_OpenUSART 0068  
                     __CFG_STVREN$ON 000000              __end_of_set_motor_speed 114A  
                   OpenTimer2@config 000F                            ??_isWDTTO 000F  
                             _printf 16EE                     __end_of_set_leds 13C6  
                          ??_openLVD 000F                  __size_of_STKFULtask 001E  
                       __mediumconst 0000                               tblptrh 000FF7  
                             tblptrl 000FF6                               tblptru 000FF8  
                   ?_openPORTCforPWM 0001                    ?_motors_brake_all 0001  
                             putch@c 0001                   ??_motors_brake_all 0015  
                        ?_ConvertADC 0001                           __accesstop 0080  
            __end_of__initialization 1966          set_motor_speed@dir_modifier 001B  
                         adc@channel 0013                __end_of_set_osc_32MHz 1740  
                     __pcstackCOMRAM 0001                        __end_of_isBOR 197A  
                      __end_of_isPOR 194C                        __end_of_gtrap 1568  
                      __end_of_putch 19CC                    __end_of_SetDCPWM1 161C  
                  __end_of_SetDCPWM2 15E2                        ??_StatusReset 000F  
                        ?_SetChanADC 0001                      __CFG_OSC$INTIO7 000000  
                      ?_lvd_flag_set 0001                              ??_isBOR 000F  
                            ??_isPOR 000F                    __end_of_OpenUSART 14AC  
                            ??_gtrap 000F                              ??_putch 000F  
                        ?_OpenTimer2 0001                            ?_OpenPWM1 0001  
                          ?_OpenPWM2 0001                              ?_LVtrap 0001  
                 __size_of_openPORTA 0006                   __size_of_openPORTB 0006  
                 __size_of_openPORTD 0006                   __size_of_openPORTE 0006  
              __end_of_motor_control 168E                              _CCP1CON 000FBD  
                            _CCP2CON 000FBA                     ?_set_motor_speed 0015  
                __size_of_ConvertADC 0004                              ?_printf 000F  
                            _BORtask 1844                       ??_lvd_flag_set 000F  
                 __size_of_spin_left 0026           set_motor_speed@motor_speed 0015  
                          ?_high_isr 0001                  __end_of_StatusReset 19A4  
                            _PORtask 120E                              _WDTtask 18A2  
                            _BusyADC 1988                              _ReadADC 1994  
                         ??_OpenPWM1 000F                           ??_OpenPWM2 000F  
                       ??_STKFULtask 0014                              _SeeLine 0020  
                 __size_of_turn_left 0026                              _OpenADC 14AC  
                    __size_of_LVtrap 0020                              __Hparam 0000  
                __size_of_SetChanADC 0016                              __Lparam 0000  
                          ?_set_leds 0001                 __size_of_reset_codes 0040  
                       __psmallconst 1000                              __pcinit 195E  
                            _isWDTTO 1924                              __ramtop 1000  
                __size_of_OpenTimer2 001C                              __ptext0 168E  
                            __ptext1 1348                              __ptext2 1656  
                            __ptext3 1822                              __ptext4 16BE  
                            __ptext5 1740                              __ptext6 1766  
                            __ptext7 178C                              __ptext8 17B2  
                            __ptext9 17D8                      __size_of_printf 002A  
                       __size_of_adc 0024                            _T2CONbits 000FCA  
             __size_of_check_sensors 00C4                              _openLVD 18F6  
                 __end_of_STKFULtask 18A2                    __end_of_openPORTA 19BC  
                  __end_of_openPORTB 19B6                    __end_of_openPORTD 19C2  
                  __end_of_openPORTE 19AA                       OpenADC@config2 000F  
                         ??_high_isr 0001                       __pintcode_body 13C6  
               end_of_initialization 1966                              int_func 13C6  
                         ??_set_leds 000F                            _RCSTAbits 000FAB  
                            printf@c 0013                              printf@f 000F  
                  __end_of_spin_left 17FE                            _RESETtask 18BE  
            __size_of_initialization 0090                            _PORTCbits 000F82  
                          _PORTDbits 000F83                            _PORTEbits 000F84  
                     set_osc_32MHz@i 000F                          _StatusReset 199E  
                  __end_of_turn_left 178C                            _TRISBbits 000F93  
                          _TRISCbits 000F94                           _spin_right 17B2  
                       ??_ConvertADC 000F                            _TXSTAbits 000FAC  
                      _check_sensors 114A            __size_of_motors_brake_all 0022  
                     __end_of_LVtrap 1884                 __end_of_lvd_flag_set 19C6  
      __size_of_follow_simple_curves 0030                           ?_RESETtask 0001  
                         _turn_right 1740                   __end_of_ConvertADC 19CA  
                       ??_SetChanADC 000F                       __end_of_printf 1718  
                start_initialization 195E                            _SetDCPWM1 15E2  
                          _SetDCPWM2 15A8                      SetDCPWM1@DCycle 0013  
                        __end_of_adc 1822                      SetDCPWM2@DCycle 0013  
                       ??_OpenTimer2 000F                            _OpenUSART 1444  
           __size_of_openPORTCforPWM 000E                       ?_check_sensors 0001  
                           ??_LVtrap 0014                   __end_of_SetChanADC 1924  
                  __size_of_OpenPWM1 0012                    __size_of_OpenPWM2 003A  
                           ??_printf 0011                           gtrap@count 000F  
                 __end_of_OpenTimer2 18F6                          __pbssCOMRAM 001E  
                           ?_BORtask 0001                           ?_SetDCPWM1 000F  
                         ?_SetDCPWM2 000F                          ?_spin_right 0001  
                      PORtask@count1 0014                        PORtask@count2 0018  
                __end_of__stringdata 107E               __size_of_set_osc_32MHz 0028  
                      ?_straight_fwd 0001             set_motor_speed@the_motor 001A  
                           ?_PORtask 0001                             ?_WDTtask 0001  
                         ?_OpenUSART 000F                    __size_of_high_isr 143C  
                           ?_BusyADC 0001                             ?_ReadADC 000F  
                  OpenADC@portconfig 0010                             ?_OpenADC 000F  
                          __pintcode 0008                          ??_RESETtask 0014  
                     _initialization 12B8                    __size_of_set_leds 007E  
                           ?_isWDTTO 0001                          ?_turn_right 0001  
                        __smallconst 1000                             ?_openLVD 0001  
           __size_of_set_motor_speed 00CA                       ??_straight_fwd 001E  
                     __size_of_isBOR 000E                       __size_of_isPOR 0014  
                     __size_of_gtrap 005E                       __size_of_putch 0002  
             __size_of_motor_control 0038                      ??_check_sensors 0014  
                          _openPORTA 19B6                            _openPORTB 19B0  
                          _openPORTD 19BC                            _openPORTE 19A4  
                      OpenADC@config 0013                __size_of_lvd_flag_set 0004  
                           _IPR2bits 000FA2                             _PIE1bits 000F9D  
                           _PIE2bits 000FA0                        ??_reset_codes 001C  
                   _motors_brake_all 1822                             _PIR1bits 000F9E  
                           _PIR2bits 000FA1               __end_of_initialization 1348  
                           _RCONbits 000FD0                    ??_openPORTCforPWM 000F  
                      _set_osc_32MHz 1718                  __size_of_spin_right 0026  
__end_ofset_motor_speed@motor_speeds 100F          set_motor_speed@motor_speeds 1001  
                        _HLVDCONbits 000FD2                            _threshold 001E  
                          _spin_left 17D8                           _ADCON0bits 000FC2  
                        __stringdata 100F                         ?_StatusReset 0001  
                        ??_SetDCPWM1 0011                          ??_SetDCPWM2 0011  
                   __size_of_BORtask 0020                         _lvd_flag_set 19C2  
                          _turn_left 1766                     __size_of_PORtask 00AA  
                        ??_OpenUSART 0011                   SetDCPWM1@dutycycle 000F  
                         ?_openPORTA 0001                           ?_openPORTB 0001  
                         ?_openPORTD 0001                           ?_openPORTE 0001  
                   __size_of_WDTtask 001C                      OpenUSART@config 0014  
                __size_of_turn_right 0026                             _OpenPWM1 194C  
                           _OpenPWM2 161C                     __size_of_BusyADC 000C  
                   __size_of_ReadADC 000A                             __Hrparam 0000  
                   __size_of_OpenADC 005E                      ?_initialization 0001  
                           __Lrparam 0000                   SetDCPWM2@dutycycle 000F  
                     ?_set_osc_32MHz 0001                  __end_of_reset_codes 15A8  
                      _motor_control 1656                           ?_spin_left 0001  
                     OpenPWM2@ccp2mx 0011                     __size_of_isWDTTO 0014  
      set_motor_speed@speed_modifier 0016                       OpenPWM1@period 000F  
                     OpenPWM2@period 0010                     __size_of_openLVD 0018  
       __end_of_follow_simple_curves 16EE                             __ptext10 1080  
                           __ptext11 19C2                             __ptext20 18BE  
                           __ptext12 12B8                             __ptext21 120E  
                           __ptext13 1718                             __ptext30 15A8  
                           __ptext22 1844                             __ptext14 1568  
                           __ptext31 15E2                             __ptext23 199E  
                           __ptext15 1924                             __ptext40 1994  
                           __ptext32 1444                             __ptext24 19A4  
                           __ptext16 1938                             __ptext41 19C6  
                           __ptext33 18DA                             __ptext25 19AA  
                           __ptext17 196C                             __ptext42 1988  
                           __ptext34 161C                             __ptext26 197A  
                           __ptext18 18A2                             __ptext43 1864  
                           __ptext35 194C                             __ptext27 19B0  
                           __ptext19 1884                             __ptext44 16EE  
                           __ptext36 14AC                             __ptext28 19B6  
                           __ptext45 19CA                             __ptext37 114A  
                           __ptext29 18F6                             __ptext46 19BC  
                           __ptext38 17FE                             __ptext47 150A  
                           __ptext39 190E                           ?_turn_left 0001  
                           _high_isr 0008            set_motor_speed@duty_cycle 001C  
                  ??_set_motor_speed 0018                        __size_of_main 0030  
                           _lvd_flag 0021                             _set_leds 1348  
               __end_of_straight_fwd 17B2                       ?_motor_control 0001  
                        _OSCTUNEbits 000F9B                           _INTCONbits 000FF2  
                     OpenUSART@spbrg 000F                         ??_spin_right 001E  
                           intlevel2 0000                          ??_openPORTA 000F  
                        ??_openPORTB 000F                          ??_openPORTD 000F  
                        ??_openPORTE 000F                    _openPORTCforUSART 19AA  
                  SetChanADC@channel 0010                      ??_set_osc_32MHz 000F  
                        _reset_codes 1568                           _OSCCONbits 000FD3  
                 ?_openPORTCforUSART 0001                             printf@ap 0011  
                 __end_of_spin_right 17D8                  ??_openPORTCforUSART 000F  
                        ??_spin_left 001E                         ??_turn_right 001E  
           __end_of_motors_brake_all 1844                 __size_of_StatusReset 0006  
                        ??_turn_left 001E                      _openPORTCforPWM 197A  
          __end_of_openPORTCforUSART 19B0                   __end_of_turn_right 1766  
                         _STKFULtask 1884                      ??_motor_control 001E  
